
;CodeVisionAVR C Compiler V3.12 Advanced
;(C) Copyright 1998-2014 Pavel Haiduc, HP InfoTech s.r.l.
;http://www.hpinfotech.com

;Build configuration    : Debug
;Chip type              : ATmega32
;Program type           : Application
;Clock frequency        : 8.000000 MHz
;Memory model           : Small
;Optimize for           : Size
;(s)printf features     : int, width
;(s)scanf features      : int, width
;External RAM size      : 0
;Data Stack size        : 512 byte(s)
;Heap size              : 0 byte(s)
;Promote 'char' to 'int': Yes
;'char' is unsigned     : Yes
;8 bit enums            : Yes
;Global 'const' stored in FLASH: Yes
;Enhanced function parameter passing: Yes
;Enhanced core instructions: On
;Automatic register allocation for global variables: On
;Smart register allocation: On

	#define _MODEL_SMALL_

	#pragma AVRPART ADMIN PART_NAME ATmega32
	#pragma AVRPART MEMORY PROG_FLASH 32768
	#pragma AVRPART MEMORY EEPROM 1024
	#pragma AVRPART MEMORY INT_SRAM SIZE 2048
	#pragma AVRPART MEMORY INT_SRAM START_ADDR 0x60

	#define CALL_SUPPORTED 1

	.LISTMAC
	.EQU UDRE=0x5
	.EQU RXC=0x7
	.EQU USR=0xB
	.EQU UDR=0xC
	.EQU SPSR=0xE
	.EQU SPDR=0xF
	.EQU EERE=0x0
	.EQU EEWE=0x1
	.EQU EEMWE=0x2
	.EQU EECR=0x1C
	.EQU EEDR=0x1D
	.EQU EEARL=0x1E
	.EQU EEARH=0x1F
	.EQU WDTCR=0x21
	.EQU MCUCR=0x35
	.EQU GICR=0x3B
	.EQU SPL=0x3D
	.EQU SPH=0x3E
	.EQU SREG=0x3F

	.DEF R0X0=R0
	.DEF R0X1=R1
	.DEF R0X2=R2
	.DEF R0X3=R3
	.DEF R0X4=R4
	.DEF R0X5=R5
	.DEF R0X6=R6
	.DEF R0X7=R7
	.DEF R0X8=R8
	.DEF R0X9=R9
	.DEF R0XA=R10
	.DEF R0XB=R11
	.DEF R0XC=R12
	.DEF R0XD=R13
	.DEF R0XE=R14
	.DEF R0XF=R15
	.DEF R0X10=R16
	.DEF R0X11=R17
	.DEF R0X12=R18
	.DEF R0X13=R19
	.DEF R0X14=R20
	.DEF R0X15=R21
	.DEF R0X16=R22
	.DEF R0X17=R23
	.DEF R0X18=R24
	.DEF R0X19=R25
	.DEF R0X1A=R26
	.DEF R0X1B=R27
	.DEF R0X1C=R28
	.DEF R0X1D=R29
	.DEF R0X1E=R30
	.DEF R0X1F=R31

	.EQU __SRAM_START=0x0060
	.EQU __SRAM_END=0x085F
	.EQU __DSTACK_SIZE=0x0200
	.EQU __HEAP_SIZE=0x0000
	.EQU __CLEAR_SRAM_SIZE=__SRAM_END-__SRAM_START+1

	.MACRO __CPD1N
	CPI  R30,LOW(@0)
	LDI  R26,HIGH(@0)
	CPC  R31,R26
	LDI  R26,BYTE3(@0)
	CPC  R22,R26
	LDI  R26,BYTE4(@0)
	CPC  R23,R26
	.ENDM

	.MACRO __CPD2N
	CPI  R26,LOW(@0)
	LDI  R30,HIGH(@0)
	CPC  R27,R30
	LDI  R30,BYTE3(@0)
	CPC  R24,R30
	LDI  R30,BYTE4(@0)
	CPC  R25,R30
	.ENDM

	.MACRO __CPWRR
	CP   R@0,R@2
	CPC  R@1,R@3
	.ENDM

	.MACRO __CPWRN
	CPI  R@0,LOW(@2)
	LDI  R30,HIGH(@2)
	CPC  R@1,R30
	.ENDM

	.MACRO __ADDB1MN
	SUBI R30,LOW(-@0-(@1))
	.ENDM

	.MACRO __ADDB2MN
	SUBI R26,LOW(-@0-(@1))
	.ENDM

	.MACRO __ADDW1MN
	SUBI R30,LOW(-@0-(@1))
	SBCI R31,HIGH(-@0-(@1))
	.ENDM

	.MACRO __ADDW2MN
	SUBI R26,LOW(-@0-(@1))
	SBCI R27,HIGH(-@0-(@1))
	.ENDM

	.MACRO __ADDW1FN
	SUBI R30,LOW(-2*@0-(@1))
	SBCI R31,HIGH(-2*@0-(@1))
	.ENDM

	.MACRO __ADDD1FN
	SUBI R30,LOW(-2*@0-(@1))
	SBCI R31,HIGH(-2*@0-(@1))
	SBCI R22,BYTE3(-2*@0-(@1))
	.ENDM

	.MACRO __ADDD1N
	SUBI R30,LOW(-@0)
	SBCI R31,HIGH(-@0)
	SBCI R22,BYTE3(-@0)
	SBCI R23,BYTE4(-@0)
	.ENDM

	.MACRO __ADDD2N
	SUBI R26,LOW(-@0)
	SBCI R27,HIGH(-@0)
	SBCI R24,BYTE3(-@0)
	SBCI R25,BYTE4(-@0)
	.ENDM

	.MACRO __SUBD1N
	SUBI R30,LOW(@0)
	SBCI R31,HIGH(@0)
	SBCI R22,BYTE3(@0)
	SBCI R23,BYTE4(@0)
	.ENDM

	.MACRO __SUBD2N
	SUBI R26,LOW(@0)
	SBCI R27,HIGH(@0)
	SBCI R24,BYTE3(@0)
	SBCI R25,BYTE4(@0)
	.ENDM

	.MACRO __ANDBMNN
	LDS  R30,@0+(@1)
	ANDI R30,LOW(@2)
	STS  @0+(@1),R30
	.ENDM

	.MACRO __ANDWMNN
	LDS  R30,@0+(@1)
	ANDI R30,LOW(@2)
	STS  @0+(@1),R30
	LDS  R30,@0+(@1)+1
	ANDI R30,HIGH(@2)
	STS  @0+(@1)+1,R30
	.ENDM

	.MACRO __ANDD1N
	ANDI R30,LOW(@0)
	ANDI R31,HIGH(@0)
	ANDI R22,BYTE3(@0)
	ANDI R23,BYTE4(@0)
	.ENDM

	.MACRO __ANDD2N
	ANDI R26,LOW(@0)
	ANDI R27,HIGH(@0)
	ANDI R24,BYTE3(@0)
	ANDI R25,BYTE4(@0)
	.ENDM

	.MACRO __ORBMNN
	LDS  R30,@0+(@1)
	ORI  R30,LOW(@2)
	STS  @0+(@1),R30
	.ENDM

	.MACRO __ORWMNN
	LDS  R30,@0+(@1)
	ORI  R30,LOW(@2)
	STS  @0+(@1),R30
	LDS  R30,@0+(@1)+1
	ORI  R30,HIGH(@2)
	STS  @0+(@1)+1,R30
	.ENDM

	.MACRO __ORD1N
	ORI  R30,LOW(@0)
	ORI  R31,HIGH(@0)
	ORI  R22,BYTE3(@0)
	ORI  R23,BYTE4(@0)
	.ENDM

	.MACRO __ORD2N
	ORI  R26,LOW(@0)
	ORI  R27,HIGH(@0)
	ORI  R24,BYTE3(@0)
	ORI  R25,BYTE4(@0)
	.ENDM

	.MACRO __DELAY_USB
	LDI  R24,LOW(@0)
__DELAY_USB_LOOP:
	DEC  R24
	BRNE __DELAY_USB_LOOP
	.ENDM

	.MACRO __DELAY_USW
	LDI  R24,LOW(@0)
	LDI  R25,HIGH(@0)
__DELAY_USW_LOOP:
	SBIW R24,1
	BRNE __DELAY_USW_LOOP
	.ENDM

	.MACRO __GETD1S
	LDD  R30,Y+@0
	LDD  R31,Y+@0+1
	LDD  R22,Y+@0+2
	LDD  R23,Y+@0+3
	.ENDM

	.MACRO __GETD2S
	LDD  R26,Y+@0
	LDD  R27,Y+@0+1
	LDD  R24,Y+@0+2
	LDD  R25,Y+@0+3
	.ENDM

	.MACRO __PUTD1S
	STD  Y+@0,R30
	STD  Y+@0+1,R31
	STD  Y+@0+2,R22
	STD  Y+@0+3,R23
	.ENDM

	.MACRO __PUTD2S
	STD  Y+@0,R26
	STD  Y+@0+1,R27
	STD  Y+@0+2,R24
	STD  Y+@0+3,R25
	.ENDM

	.MACRO __PUTDZ2
	STD  Z+@0,R26
	STD  Z+@0+1,R27
	STD  Z+@0+2,R24
	STD  Z+@0+3,R25
	.ENDM

	.MACRO __CLRD1S
	STD  Y+@0,R30
	STD  Y+@0+1,R30
	STD  Y+@0+2,R30
	STD  Y+@0+3,R30
	.ENDM

	.MACRO __POINTB1MN
	LDI  R30,LOW(@0+(@1))
	.ENDM

	.MACRO __POINTW1MN
	LDI  R30,LOW(@0+(@1))
	LDI  R31,HIGH(@0+(@1))
	.ENDM

	.MACRO __POINTD1M
	LDI  R30,LOW(@0)
	LDI  R31,HIGH(@0)
	LDI  R22,BYTE3(@0)
	LDI  R23,BYTE4(@0)
	.ENDM

	.MACRO __POINTW1FN
	LDI  R30,LOW(2*@0+(@1))
	LDI  R31,HIGH(2*@0+(@1))
	.ENDM

	.MACRO __POINTD1FN
	LDI  R30,LOW(2*@0+(@1))
	LDI  R31,HIGH(2*@0+(@1))
	LDI  R22,BYTE3(2*@0+(@1))
	LDI  R23,BYTE4(2*@0+(@1))
	.ENDM

	.MACRO __POINTB2MN
	LDI  R26,LOW(@0+(@1))
	.ENDM

	.MACRO __POINTW2MN
	LDI  R26,LOW(@0+(@1))
	LDI  R27,HIGH(@0+(@1))
	.ENDM

	.MACRO __POINTW2FN
	LDI  R26,LOW(2*@0+(@1))
	LDI  R27,HIGH(2*@0+(@1))
	.ENDM

	.MACRO __POINTD2FN
	LDI  R26,LOW(2*@0+(@1))
	LDI  R27,HIGH(2*@0+(@1))
	LDI  R24,BYTE3(2*@0+(@1))
	LDI  R25,BYTE4(2*@0+(@1))
	.ENDM

	.MACRO __POINTBRM
	LDI  R@0,LOW(@1)
	.ENDM

	.MACRO __POINTWRM
	LDI  R@0,LOW(@2)
	LDI  R@1,HIGH(@2)
	.ENDM

	.MACRO __POINTBRMN
	LDI  R@0,LOW(@1+(@2))
	.ENDM

	.MACRO __POINTWRMN
	LDI  R@0,LOW(@2+(@3))
	LDI  R@1,HIGH(@2+(@3))
	.ENDM

	.MACRO __POINTWRFN
	LDI  R@0,LOW(@2*2+(@3))
	LDI  R@1,HIGH(@2*2+(@3))
	.ENDM

	.MACRO __GETD1N
	LDI  R30,LOW(@0)
	LDI  R31,HIGH(@0)
	LDI  R22,BYTE3(@0)
	LDI  R23,BYTE4(@0)
	.ENDM

	.MACRO __GETD2N
	LDI  R26,LOW(@0)
	LDI  R27,HIGH(@0)
	LDI  R24,BYTE3(@0)
	LDI  R25,BYTE4(@0)
	.ENDM

	.MACRO __GETB1MN
	LDS  R30,@0+(@1)
	.ENDM

	.MACRO __GETB1HMN
	LDS  R31,@0+(@1)
	.ENDM

	.MACRO __GETW1MN
	LDS  R30,@0+(@1)
	LDS  R31,@0+(@1)+1
	.ENDM

	.MACRO __GETD1MN
	LDS  R30,@0+(@1)
	LDS  R31,@0+(@1)+1
	LDS  R22,@0+(@1)+2
	LDS  R23,@0+(@1)+3
	.ENDM

	.MACRO __GETBRMN
	LDS  R@0,@1+(@2)
	.ENDM

	.MACRO __GETWRMN
	LDS  R@0,@2+(@3)
	LDS  R@1,@2+(@3)+1
	.ENDM

	.MACRO __GETWRZ
	LDD  R@0,Z+@2
	LDD  R@1,Z+@2+1
	.ENDM

	.MACRO __GETD2Z
	LDD  R26,Z+@0
	LDD  R27,Z+@0+1
	LDD  R24,Z+@0+2
	LDD  R25,Z+@0+3
	.ENDM

	.MACRO __GETB2MN
	LDS  R26,@0+(@1)
	.ENDM

	.MACRO __GETW2MN
	LDS  R26,@0+(@1)
	LDS  R27,@0+(@1)+1
	.ENDM

	.MACRO __GETD2MN
	LDS  R26,@0+(@1)
	LDS  R27,@0+(@1)+1
	LDS  R24,@0+(@1)+2
	LDS  R25,@0+(@1)+3
	.ENDM

	.MACRO __PUTB1MN
	STS  @0+(@1),R30
	.ENDM

	.MACRO __PUTW1MN
	STS  @0+(@1),R30
	STS  @0+(@1)+1,R31
	.ENDM

	.MACRO __PUTD1MN
	STS  @0+(@1),R30
	STS  @0+(@1)+1,R31
	STS  @0+(@1)+2,R22
	STS  @0+(@1)+3,R23
	.ENDM

	.MACRO __PUTB1EN
	LDI  R26,LOW(@0+(@1))
	LDI  R27,HIGH(@0+(@1))
	CALL __EEPROMWRB
	.ENDM

	.MACRO __PUTW1EN
	LDI  R26,LOW(@0+(@1))
	LDI  R27,HIGH(@0+(@1))
	CALL __EEPROMWRW
	.ENDM

	.MACRO __PUTD1EN
	LDI  R26,LOW(@0+(@1))
	LDI  R27,HIGH(@0+(@1))
	CALL __EEPROMWRD
	.ENDM

	.MACRO __PUTBR0MN
	STS  @0+(@1),R0
	.ENDM

	.MACRO __PUTBMRN
	STS  @0+(@1),R@2
	.ENDM

	.MACRO __PUTWMRN
	STS  @0+(@1),R@2
	STS  @0+(@1)+1,R@3
	.ENDM

	.MACRO __PUTBZR
	STD  Z+@1,R@0
	.ENDM

	.MACRO __PUTWZR
	STD  Z+@2,R@0
	STD  Z+@2+1,R@1
	.ENDM

	.MACRO __GETW1R
	MOV  R30,R@0
	MOV  R31,R@1
	.ENDM

	.MACRO __GETW2R
	MOV  R26,R@0
	MOV  R27,R@1
	.ENDM

	.MACRO __GETWRN
	LDI  R@0,LOW(@2)
	LDI  R@1,HIGH(@2)
	.ENDM

	.MACRO __PUTW1R
	MOV  R@0,R30
	MOV  R@1,R31
	.ENDM

	.MACRO __PUTW2R
	MOV  R@0,R26
	MOV  R@1,R27
	.ENDM

	.MACRO __ADDWRN
	SUBI R@0,LOW(-@2)
	SBCI R@1,HIGH(-@2)
	.ENDM

	.MACRO __ADDWRR
	ADD  R@0,R@2
	ADC  R@1,R@3
	.ENDM

	.MACRO __SUBWRN
	SUBI R@0,LOW(@2)
	SBCI R@1,HIGH(@2)
	.ENDM

	.MACRO __SUBWRR
	SUB  R@0,R@2
	SBC  R@1,R@3
	.ENDM

	.MACRO __ANDWRN
	ANDI R@0,LOW(@2)
	ANDI R@1,HIGH(@2)
	.ENDM

	.MACRO __ANDWRR
	AND  R@0,R@2
	AND  R@1,R@3
	.ENDM

	.MACRO __ORWRN
	ORI  R@0,LOW(@2)
	ORI  R@1,HIGH(@2)
	.ENDM

	.MACRO __ORWRR
	OR   R@0,R@2
	OR   R@1,R@3
	.ENDM

	.MACRO __EORWRR
	EOR  R@0,R@2
	EOR  R@1,R@3
	.ENDM

	.MACRO __GETWRS
	LDD  R@0,Y+@2
	LDD  R@1,Y+@2+1
	.ENDM

	.MACRO __PUTBSR
	STD  Y+@1,R@0
	.ENDM

	.MACRO __PUTWSR
	STD  Y+@2,R@0
	STD  Y+@2+1,R@1
	.ENDM

	.MACRO __MOVEWRR
	MOV  R@0,R@2
	MOV  R@1,R@3
	.ENDM

	.MACRO __INWR
	IN   R@0,@2
	IN   R@1,@2+1
	.ENDM

	.MACRO __OUTWR
	OUT  @2+1,R@1
	OUT  @2,R@0
	.ENDM

	.MACRO __CALL1MN
	LDS  R30,@0+(@1)
	LDS  R31,@0+(@1)+1
	ICALL
	.ENDM

	.MACRO __CALL1FN
	LDI  R30,LOW(2*@0+(@1))
	LDI  R31,HIGH(2*@0+(@1))
	CALL __GETW1PF
	ICALL
	.ENDM

	.MACRO __CALL2EN
	PUSH R26
	PUSH R27
	LDI  R26,LOW(@0+(@1))
	LDI  R27,HIGH(@0+(@1))
	CALL __EEPROMRDW
	POP  R27
	POP  R26
	ICALL
	.ENDM

	.MACRO __CALL2EX
	SUBI R26,LOW(-@0)
	SBCI R27,HIGH(-@0)
	CALL __EEPROMRDD
	ICALL
	.ENDM

	.MACRO __GETW1STACK
	IN   R30,SPL
	IN   R31,SPH
	ADIW R30,@0+1
	LD   R0,Z+
	LD   R31,Z
	MOV  R30,R0
	.ENDM

	.MACRO __GETD1STACK
	IN   R30,SPL
	IN   R31,SPH
	ADIW R30,@0+1
	LD   R0,Z+
	LD   R1,Z+
	LD   R22,Z
	MOVW R30,R0
	.ENDM

	.MACRO __NBST
	BST  R@0,@1
	IN   R30,SREG
	LDI  R31,0x40
	EOR  R30,R31
	OUT  SREG,R30
	.ENDM


	.MACRO __PUTB1SN
	LDD  R26,Y+@0
	LDD  R27,Y+@0+1
	SUBI R26,LOW(-@1)
	SBCI R27,HIGH(-@1)
	ST   X,R30
	.ENDM

	.MACRO __PUTW1SN
	LDD  R26,Y+@0
	LDD  R27,Y+@0+1
	SUBI R26,LOW(-@1)
	SBCI R27,HIGH(-@1)
	ST   X+,R30
	ST   X,R31
	.ENDM

	.MACRO __PUTD1SN
	LDD  R26,Y+@0
	LDD  R27,Y+@0+1
	SUBI R26,LOW(-@1)
	SBCI R27,HIGH(-@1)
	CALL __PUTDP1
	.ENDM

	.MACRO __PUTB1SNS
	LDD  R26,Y+@0
	LDD  R27,Y+@0+1
	ADIW R26,@1
	ST   X,R30
	.ENDM

	.MACRO __PUTW1SNS
	LDD  R26,Y+@0
	LDD  R27,Y+@0+1
	ADIW R26,@1
	ST   X+,R30
	ST   X,R31
	.ENDM

	.MACRO __PUTD1SNS
	LDD  R26,Y+@0
	LDD  R27,Y+@0+1
	ADIW R26,@1
	CALL __PUTDP1
	.ENDM

	.MACRO __PUTB1PMN
	LDS  R26,@0
	LDS  R27,@0+1
	SUBI R26,LOW(-@1)
	SBCI R27,HIGH(-@1)
	ST   X,R30
	.ENDM

	.MACRO __PUTW1PMN
	LDS  R26,@0
	LDS  R27,@0+1
	SUBI R26,LOW(-@1)
	SBCI R27,HIGH(-@1)
	ST   X+,R30
	ST   X,R31
	.ENDM

	.MACRO __PUTD1PMN
	LDS  R26,@0
	LDS  R27,@0+1
	SUBI R26,LOW(-@1)
	SBCI R27,HIGH(-@1)
	CALL __PUTDP1
	.ENDM

	.MACRO __PUTB1PMNS
	LDS  R26,@0
	LDS  R27,@0+1
	ADIW R26,@1
	ST   X,R30
	.ENDM

	.MACRO __PUTW1PMNS
	LDS  R26,@0
	LDS  R27,@0+1
	ADIW R26,@1
	ST   X+,R30
	ST   X,R31
	.ENDM

	.MACRO __PUTD1PMNS
	LDS  R26,@0
	LDS  R27,@0+1
	ADIW R26,@1
	CALL __PUTDP1
	.ENDM

	.MACRO __PUTB1RN
	MOVW R26,R@0
	SUBI R26,LOW(-@1)
	SBCI R27,HIGH(-@1)
	ST   X,R30
	.ENDM

	.MACRO __PUTW1RN
	MOVW R26,R@0
	SUBI R26,LOW(-@1)
	SBCI R27,HIGH(-@1)
	ST   X+,R30
	ST   X,R31
	.ENDM

	.MACRO __PUTD1RN
	MOVW R26,R@0
	SUBI R26,LOW(-@1)
	SBCI R27,HIGH(-@1)
	CALL __PUTDP1
	.ENDM

	.MACRO __PUTB1RNS
	MOVW R26,R@0
	ADIW R26,@1
	ST   X,R30
	.ENDM

	.MACRO __PUTW1RNS
	MOVW R26,R@0
	ADIW R26,@1
	ST   X+,R30
	ST   X,R31
	.ENDM

	.MACRO __PUTD1RNS
	MOVW R26,R@0
	ADIW R26,@1
	CALL __PUTDP1
	.ENDM

	.MACRO __PUTB1RON
	MOV  R26,R@0
	MOV  R27,R@1
	SUBI R26,LOW(-@2)
	SBCI R27,HIGH(-@2)
	ST   X,R30
	.ENDM

	.MACRO __PUTW1RON
	MOV  R26,R@0
	MOV  R27,R@1
	SUBI R26,LOW(-@2)
	SBCI R27,HIGH(-@2)
	ST   X+,R30
	ST   X,R31
	.ENDM

	.MACRO __PUTD1RON
	MOV  R26,R@0
	MOV  R27,R@1
	SUBI R26,LOW(-@2)
	SBCI R27,HIGH(-@2)
	CALL __PUTDP1
	.ENDM

	.MACRO __PUTB1RONS
	MOV  R26,R@0
	MOV  R27,R@1
	ADIW R26,@2
	ST   X,R30
	.ENDM

	.MACRO __PUTW1RONS
	MOV  R26,R@0
	MOV  R27,R@1
	ADIW R26,@2
	ST   X+,R30
	ST   X,R31
	.ENDM

	.MACRO __PUTD1RONS
	MOV  R26,R@0
	MOV  R27,R@1
	ADIW R26,@2
	CALL __PUTDP1
	.ENDM


	.MACRO __GETB1SX
	MOVW R30,R28
	SUBI R30,LOW(-@0)
	SBCI R31,HIGH(-@0)
	LD   R30,Z
	.ENDM

	.MACRO __GETB1HSX
	MOVW R30,R28
	SUBI R30,LOW(-@0)
	SBCI R31,HIGH(-@0)
	LD   R31,Z
	.ENDM

	.MACRO __GETW1SX
	MOVW R30,R28
	SUBI R30,LOW(-@0)
	SBCI R31,HIGH(-@0)
	LD   R0,Z+
	LD   R31,Z
	MOV  R30,R0
	.ENDM

	.MACRO __GETD1SX
	MOVW R30,R28
	SUBI R30,LOW(-@0)
	SBCI R31,HIGH(-@0)
	LD   R0,Z+
	LD   R1,Z+
	LD   R22,Z+
	LD   R23,Z
	MOVW R30,R0
	.ENDM

	.MACRO __GETB2SX
	MOVW R26,R28
	SUBI R26,LOW(-@0)
	SBCI R27,HIGH(-@0)
	LD   R26,X
	.ENDM

	.MACRO __GETW2SX
	MOVW R26,R28
	SUBI R26,LOW(-@0)
	SBCI R27,HIGH(-@0)
	LD   R0,X+
	LD   R27,X
	MOV  R26,R0
	.ENDM

	.MACRO __GETD2SX
	MOVW R26,R28
	SUBI R26,LOW(-@0)
	SBCI R27,HIGH(-@0)
	LD   R0,X+
	LD   R1,X+
	LD   R24,X+
	LD   R25,X
	MOVW R26,R0
	.ENDM

	.MACRO __GETBRSX
	MOVW R30,R28
	SUBI R30,LOW(-@1)
	SBCI R31,HIGH(-@1)
	LD   R@0,Z
	.ENDM

	.MACRO __GETWRSX
	MOVW R30,R28
	SUBI R30,LOW(-@2)
	SBCI R31,HIGH(-@2)
	LD   R@0,Z+
	LD   R@1,Z
	.ENDM

	.MACRO __GETBRSX2
	MOVW R26,R28
	SUBI R26,LOW(-@1)
	SBCI R27,HIGH(-@1)
	LD   R@0,X
	.ENDM

	.MACRO __GETWRSX2
	MOVW R26,R28
	SUBI R26,LOW(-@2)
	SBCI R27,HIGH(-@2)
	LD   R@0,X+
	LD   R@1,X
	.ENDM

	.MACRO __LSLW8SX
	MOVW R30,R28
	SUBI R30,LOW(-@0)
	SBCI R31,HIGH(-@0)
	LD   R31,Z
	CLR  R30
	.ENDM

	.MACRO __PUTB1SX
	MOVW R26,R28
	SUBI R26,LOW(-@0)
	SBCI R27,HIGH(-@0)
	ST   X,R30
	.ENDM

	.MACRO __PUTW1SX
	MOVW R26,R28
	SUBI R26,LOW(-@0)
	SBCI R27,HIGH(-@0)
	ST   X+,R30
	ST   X,R31
	.ENDM

	.MACRO __PUTD1SX
	MOVW R26,R28
	SUBI R26,LOW(-@0)
	SBCI R27,HIGH(-@0)
	ST   X+,R30
	ST   X+,R31
	ST   X+,R22
	ST   X,R23
	.ENDM

	.MACRO __CLRW1SX
	MOVW R26,R28
	SUBI R26,LOW(-@0)
	SBCI R27,HIGH(-@0)
	ST   X+,R30
	ST   X,R30
	.ENDM

	.MACRO __CLRD1SX
	MOVW R26,R28
	SUBI R26,LOW(-@0)
	SBCI R27,HIGH(-@0)
	ST   X+,R30
	ST   X+,R30
	ST   X+,R30
	ST   X,R30
	.ENDM

	.MACRO __PUTB2SX
	MOVW R30,R28
	SUBI R30,LOW(-@0)
	SBCI R31,HIGH(-@0)
	ST   Z,R26
	.ENDM

	.MACRO __PUTW2SX
	MOVW R30,R28
	SUBI R30,LOW(-@0)
	SBCI R31,HIGH(-@0)
	ST   Z+,R26
	ST   Z,R27
	.ENDM

	.MACRO __PUTD2SX
	MOVW R30,R28
	SUBI R30,LOW(-@0)
	SBCI R31,HIGH(-@0)
	ST   Z+,R26
	ST   Z+,R27
	ST   Z+,R24
	ST   Z,R25
	.ENDM

	.MACRO __PUTBSRX
	MOVW R30,R28
	SUBI R30,LOW(-@1)
	SBCI R31,HIGH(-@1)
	ST   Z,R@0
	.ENDM

	.MACRO __PUTWSRX
	MOVW R30,R28
	SUBI R30,LOW(-@2)
	SBCI R31,HIGH(-@2)
	ST   Z+,R@0
	ST   Z,R@1
	.ENDM

	.MACRO __PUTB1SNX
	MOVW R26,R28
	SUBI R26,LOW(-@0)
	SBCI R27,HIGH(-@0)
	LD   R0,X+
	LD   R27,X
	MOV  R26,R0
	SUBI R26,LOW(-@1)
	SBCI R27,HIGH(-@1)
	ST   X,R30
	.ENDM

	.MACRO __PUTW1SNX
	MOVW R26,R28
	SUBI R26,LOW(-@0)
	SBCI R27,HIGH(-@0)
	LD   R0,X+
	LD   R27,X
	MOV  R26,R0
	SUBI R26,LOW(-@1)
	SBCI R27,HIGH(-@1)
	ST   X+,R30
	ST   X,R31
	.ENDM

	.MACRO __PUTD1SNX
	MOVW R26,R28
	SUBI R26,LOW(-@0)
	SBCI R27,HIGH(-@0)
	LD   R0,X+
	LD   R27,X
	MOV  R26,R0
	SUBI R26,LOW(-@1)
	SBCI R27,HIGH(-@1)
	ST   X+,R30
	ST   X+,R31
	ST   X+,R22
	ST   X,R23
	.ENDM

	.MACRO __MULBRR
	MULS R@0,R@1
	MOVW R30,R0
	.ENDM

	.MACRO __MULBRRU
	MUL  R@0,R@1
	MOVW R30,R0
	.ENDM

	.MACRO __MULBRR0
	MULS R@0,R@1
	.ENDM

	.MACRO __MULBRRU0
	MUL  R@0,R@1
	.ENDM

	.MACRO __MULBNWRU
	LDI  R26,@2
	MUL  R26,R@0
	MOVW R30,R0
	MUL  R26,R@1
	ADD  R31,R0
	.ENDM

;NAME DEFINITIONS FOR GLOBAL VARIABLES ALLOCATED TO REGISTERS
	.DEF _temp1=R4
	.DEF _temp1_msb=R5
	.DEF _temp2=R6
	.DEF _temp2_msb=R7
	.DEF _ac_result=R8
	.DEF _ac_result_msb=R9
	.DEF _motor1=R10
	.DEF _motor1_msb=R11
	.DEF _motor2=R12
	.DEF _motor2_msb=R13

	.CSEG
	.ORG 0x00

;START OF CODE MARKER
__START_OF_CODE:

;INTERRUPT VECTORS
	JMP  __RESET
	JMP  0x00
	JMP  0x00
	JMP  0x00
	JMP  0x00
	JMP  0x00
	JMP  0x00
	JMP  0x00
	JMP  0x00
	JMP  0x00
	JMP  0x00
	JMP  0x00
	JMP  0x00
	JMP  _usart_rx_isr
	JMP  0x00
	JMP  0x00
	JMP  0x00
	JMP  0x00
	JMP  0x00
	JMP  0x00
	JMP  0x00

_tbl10_G101:
	.DB  0x10,0x27,0xE8,0x3,0x64,0x0,0xA,0x0
	.DB  0x1,0x0
_tbl16_G101:
	.DB  0x0,0x10,0x0,0x1,0x10,0x0,0x1,0x0

;REGISTER BIT VARIABLES INITIALIZATION
__REG_BIT_VARS:
	.DW  0x0000

;GLOBAL REGISTER VARIABLES INITIALIZATION
__REG_VARS:
	.DB  0x0,0x0,0x0,0x0
	.DB  0x0,0x0,0x0,0x0
	.DB  0x0,0x0

_0x0:
	.DB  0x25,0x64,0x0,0x25,0x64,0xA,0x0,0x74
	.DB  0x31,0x3A,0x25,0x64,0xA,0x74,0x32,0x3A
	.DB  0x25,0x64,0x0,0x6D,0x31,0x3A,0x25,0x64
	.DB  0xA,0x6D,0x32,0x3A,0x25,0x64,0x0
_0x2000003:
	.DB  0x80,0xC0

__GLOBAL_INI_TBL:
	.DW  0x01
	.DW  0x02
	.DW  __REG_BIT_VARS*2

	.DW  0x0A
	.DW  0x04
	.DW  __REG_VARS*2

	.DW  0x02
	.DW  __base_y_G100
	.DW  _0x2000003*2

_0xFFFFFFFF:
	.DW  0

#define __GLOBAL_INI_TBL_PRESENT 1

__RESET:
	CLI
	CLR  R30
	OUT  EECR,R30

;INTERRUPT VECTORS ARE PLACED
;AT THE START OF FLASH
	LDI  R31,1
	OUT  GICR,R31
	OUT  GICR,R30
	OUT  MCUCR,R30

;CLEAR R2-R14
	LDI  R24,(14-2)+1
	LDI  R26,2
	CLR  R27
__CLEAR_REG:
	ST   X+,R30
	DEC  R24
	BRNE __CLEAR_REG

;CLEAR SRAM
	LDI  R24,LOW(__CLEAR_SRAM_SIZE)
	LDI  R25,HIGH(__CLEAR_SRAM_SIZE)
	LDI  R26,__SRAM_START
__CLEAR_SRAM:
	ST   X+,R30
	SBIW R24,1
	BRNE __CLEAR_SRAM

;GLOBAL VARIABLES INITIALIZATION
	LDI  R30,LOW(__GLOBAL_INI_TBL*2)
	LDI  R31,HIGH(__GLOBAL_INI_TBL*2)
__GLOBAL_INI_NEXT:
	LPM  R24,Z+
	LPM  R25,Z+
	SBIW R24,0
	BREQ __GLOBAL_INI_END
	LPM  R26,Z+
	LPM  R27,Z+
	LPM  R0,Z+
	LPM  R1,Z+
	MOVW R22,R30
	MOVW R30,R0
__GLOBAL_INI_LOOP:
	LPM  R0,Z+
	ST   X+,R0
	SBIW R24,1
	BRNE __GLOBAL_INI_LOOP
	MOVW R30,R22
	RJMP __GLOBAL_INI_NEXT
__GLOBAL_INI_END:

;HARDWARE STACK POINTER INITIALIZATION
	LDI  R30,LOW(__SRAM_END-__HEAP_SIZE)
	OUT  SPL,R30
	LDI  R30,HIGH(__SRAM_END-__HEAP_SIZE)
	OUT  SPH,R30

;DATA STACK POINTER INITIALIZATION
	LDI  R28,LOW(__SRAM_START+__DSTACK_SIZE)
	LDI  R29,HIGH(__SRAM_START+__DSTACK_SIZE)

	JMP  _main

	.ESEG
	.ORG 0

	.DSEG
	.ORG 0x260

	.CSEG
;/*******************************************************
;This program was created by the
;CodeWizardAVR V3.12 Advanced
;Automatic Program Generator
;© Copyright 1998-2014 Pavel Haiduc, HP InfoTech s.r.l.
;http://www.hpinfotech.com
;
;Project :
;Version :
;Date    : 1/26/2020
;Author  :
;Company :
;Comments:
;
;
;Chip type               : ATmega32
;Program type            : Application
;AVR Core Clock frequency: 8.000000 MHz
;Memory model            : Small
;External RAM size       : 0
;Data Stack size         : 512
;*******************************************************/
;
;#include <mega32.h>
	#ifndef __SLEEP_DEFINED__
	#define __SLEEP_DEFINED__
	.EQU __se_bit=0x80
	.EQU __sm_mask=0x70
	.EQU __sm_powerdown=0x20
	.EQU __sm_powersave=0x30
	.EQU __sm_standby=0x60
	.EQU __sm_ext_standby=0x70
	.EQU __sm_adc_noise_red=0x10
	.SET power_ctrl_reg=mcucr
	#endif
;
;// Alphanumeric LCD functions
;#include <alcd.h>
;#include <delay.h>
;
;// Declare your global variables here
;void init(void);
;int temp1 = 0;
;int temp2 = 0;
;int ac_result = 0;
;char str[10] = "";
;int motor1 = 0;
;int motor2 = 0;
;
;
;#define DATA_REGISTER_EMPTY (1<<UDRE)
;#define RX_COMPLETE (1<<RXC)
;#define FRAMING_ERROR (1<<FE)
;#define PARITY_ERROR (1<<UPE)
;#define DATA_OVERRUN (1<<DOR)
;
;// USART Receiver buffer
;#define RX_BUFFER_SIZE 80
;char rx_buffer[RX_BUFFER_SIZE];
;
;#if RX_BUFFER_SIZE <= 256
;unsigned char rx_wr_index=0,rx_rd_index=0;
;#else
;unsigned int rx_wr_index=0,rx_rd_index=0;
;#endif
;
;#if RX_BUFFER_SIZE < 256
;unsigned char rx_counter=0;
;#else
;unsigned int rx_counter=0;
;#endif
;
;// This flag is set on USART Receiver buffer overflow
;bit rx_buffer_overflow;
;
;// USART Receiver interrupt service routine
;interrupt [USART_RXC] void usart_rx_isr(void)
; 0000 0043 {

	.CSEG
_usart_rx_isr:
; .FSTART _usart_rx_isr
	ST   -Y,R26
	ST   -Y,R30
	ST   -Y,R31
	IN   R30,SREG
	ST   -Y,R30
; 0000 0044 char status,data;
; 0000 0045 status=UCSRA;
	ST   -Y,R17
	ST   -Y,R16
;	status -> R17
;	data -> R16
	IN   R17,11
; 0000 0046 data=UDR;
	IN   R16,12
; 0000 0047 if ((status & (FRAMING_ERROR | PARITY_ERROR | DATA_OVERRUN))==0)
	MOV  R30,R17
	ANDI R30,LOW(0x1C)
	BRNE _0x3
; 0000 0048    {
; 0000 0049    rx_buffer[rx_wr_index++]=data;
	LDS  R30,_rx_wr_index
	SUBI R30,-LOW(1)
	STS  _rx_wr_index,R30
	SUBI R30,LOW(1)
	LDI  R31,0
	SUBI R30,LOW(-_rx_buffer)
	SBCI R31,HIGH(-_rx_buffer)
	ST   Z,R16
; 0000 004A #if RX_BUFFER_SIZE == 256
; 0000 004B    // special case for receiver buffer size=256
; 0000 004C    if (++rx_counter == 0) rx_buffer_overflow=1;
; 0000 004D #else
; 0000 004E    if (rx_wr_index == RX_BUFFER_SIZE) rx_wr_index=0;
	LDS  R26,_rx_wr_index
	CPI  R26,LOW(0x50)
	BRNE _0x4
	LDI  R30,LOW(0)
	STS  _rx_wr_index,R30
; 0000 004F    if (++rx_counter == RX_BUFFER_SIZE)
_0x4:
	LDS  R26,_rx_counter
	SUBI R26,-LOW(1)
	STS  _rx_counter,R26
	CPI  R26,LOW(0x50)
	BRNE _0x5
; 0000 0050       {
; 0000 0051       rx_counter=0;
	LDI  R30,LOW(0)
	STS  _rx_counter,R30
; 0000 0052       rx_buffer_overflow=1;
	SET
	BLD  R2,0
; 0000 0053       }
; 0000 0054 #endif
; 0000 0055    }
_0x5:
; 0000 0056 }
_0x3:
	LD   R16,Y+
	LD   R17,Y+
	LD   R30,Y+
	OUT  SREG,R30
	LD   R31,Y+
	LD   R30,Y+
	LD   R26,Y+
	RETI
; .FEND
;
;#ifndef _DEBUG_TERMINAL_IO_
;// Get a character from the USART Receiver buffer
;#define _ALTERNATE_GETCHAR_
;#pragma used+
;char getchar(void)
; 0000 005D {
_getchar:
; .FSTART _getchar
; 0000 005E char data;
; 0000 005F while (rx_counter==0);
	ST   -Y,R17
;	data -> R17
_0x6:
	LDS  R30,_rx_counter
	CPI  R30,0
	BREQ _0x6
; 0000 0060 data=rx_buffer[rx_rd_index++];
	LDS  R30,_rx_rd_index
	SUBI R30,-LOW(1)
	STS  _rx_rd_index,R30
	SUBI R30,LOW(1)
	LDI  R31,0
	SUBI R30,LOW(-_rx_buffer)
	SBCI R31,HIGH(-_rx_buffer)
	LD   R17,Z
; 0000 0061 #if RX_BUFFER_SIZE != 256
; 0000 0062 if (rx_rd_index == RX_BUFFER_SIZE) rx_rd_index=0;
	LDS  R26,_rx_rd_index
	CPI  R26,LOW(0x50)
	BRNE _0x9
	LDI  R30,LOW(0)
	STS  _rx_rd_index,R30
; 0000 0063 #endif
; 0000 0064 #asm("cli")
_0x9:
	cli
; 0000 0065 --rx_counter;
	LDS  R30,_rx_counter
	SUBI R30,LOW(1)
	STS  _rx_counter,R30
; 0000 0066 #asm("sei")
	sei
; 0000 0067 return data;
	MOV  R30,R17
	LD   R17,Y+
	RET
; 0000 0068 }
; .FEND
;#pragma used-
;#endif
;
;// Standard Input/Output functions
;#include <stdio.h>
;
;void main(void)
; 0000 0070 {
_main:
; .FSTART _main
; 0000 0071 // Declare your local variables here
; 0000 0072 
; 0000 0073 //initialize
; 0000 0074 init();
	RCALL _init
; 0000 0075 
; 0000 0076 delay_ms(2500);
	LDI  R26,LOW(2500)
	LDI  R27,HIGH(2500)
	CALL _delay_ms
; 0000 0077 
; 0000 0078 while (1)
_0xA:
; 0000 0079     {
; 0000 007A     //slave 1 check temperature
; 0000 007B     PORTB.0 = 1;
	SBI  0x18,0
; 0000 007C     PORTB.1 = 0;
	CBI  0x18,1
; 0000 007D     PORTB.2 = 0;
	CBI  0x18,2
; 0000 007E     scanf("%d",&temp1);
	CALL SUBOPT_0x0
	__GETD1N 0x4
	CALL SUBOPT_0x1
; 0000 007F     sprintf(str,"%d",temp1);
	CALL SUBOPT_0x2
	CALL SUBOPT_0x0
	MOVW R30,R4
	CALL SUBOPT_0x3
	CALL _sprintf
	ADIW R28,8
; 0000 0080     lcd_puts(str);
	CALL SUBOPT_0x4
; 0000 0081 
; 0000 0082     //slave3 check temperature and set speed
; 0000 0083     PORTB.0 = 0;
	CBI  0x18,0
; 0000 0084     PORTB.1 = 0;
	CBI  0x18,1
; 0000 0085     PORTB.2 = 1;
	SBI  0x18,2
; 0000 0086     scanf("%d",&temp2);
	CALL SUBOPT_0x0
	__GETD1N 0x6
	CALL SUBOPT_0x1
; 0000 0087     if(temp2 < 25){
	LDI  R30,LOW(25)
	LDI  R31,HIGH(25)
	CP   R6,R30
	CPC  R7,R31
	BRGE _0x19
; 0000 0088         motor1 = 10;
	LDI  R30,LOW(10)
	LDI  R31,HIGH(10)
	MOVW R10,R30
; 0000 0089     }
; 0000 008A     else if(temp2 >= 25 && temp2 <= 30){
	RJMP _0x1A
_0x19:
	LDI  R30,LOW(25)
	LDI  R31,HIGH(25)
	CP   R6,R30
	CPC  R7,R31
	BRLT _0x1C
	LDI  R30,LOW(30)
	LDI  R31,HIGH(30)
	CP   R30,R6
	CPC  R31,R7
	BRGE _0x1D
_0x1C:
	RJMP _0x1B
_0x1D:
; 0000 008B         motor1 = 50;
	LDI  R30,LOW(50)
	LDI  R31,HIGH(50)
	MOVW R10,R30
; 0000 008C     }
; 0000 008D     else if(temp2 >= 31 && temp2 <= 35){
	RJMP _0x1E
_0x1B:
	LDI  R30,LOW(31)
	LDI  R31,HIGH(31)
	CP   R6,R30
	CPC  R7,R31
	BRLT _0x20
	LDI  R30,LOW(35)
	LDI  R31,HIGH(35)
	CP   R30,R6
	CPC  R31,R7
	BRGE _0x21
_0x20:
	RJMP _0x1F
_0x21:
; 0000 008E         motor1 = 150;
	LDI  R30,LOW(150)
	LDI  R31,HIGH(150)
	MOVW R10,R30
; 0000 008F     }
; 0000 0090     else if(temp2 >= 36){
	RJMP _0x22
_0x1F:
	LDI  R30,LOW(36)
	LDI  R31,HIGH(36)
	CP   R6,R30
	CPC  R7,R31
	BRLT _0x23
; 0000 0091         motor1 = 250;
	LDI  R30,LOW(250)
	LDI  R31,HIGH(250)
	MOVW R10,R30
; 0000 0092     }
; 0000 0093     else{
	RJMP _0x24
_0x23:
; 0000 0094         motor1 = 0;
	CLR  R10
	CLR  R11
; 0000 0095     }
_0x24:
_0x22:
_0x1E:
_0x1A:
; 0000 0096 
; 0000 0097     printf("%d\n",motor1);
	__POINTW1FN _0x0,3
	ST   -Y,R31
	ST   -Y,R30
	MOVW R30,R10
	CALL SUBOPT_0x3
	CALL _printf
	ADIW R28,6
; 0000 0098 
; 0000 0099     // slave2 check ac_result and set fan speed
; 0000 009A     PORTB.0 = 0;
	CBI  0x18,0
; 0000 009B     PORTB.1 = 1;
	SBI  0x18,1
; 0000 009C     PORTB.2 = 0;
	CBI  0x18,2
; 0000 009D     scanf("%d",&ac_result);
	CALL SUBOPT_0x0
	__GETD1N 0x8
	CALL SUBOPT_0x1
; 0000 009E     if(ac_result == 1){
	LDI  R30,LOW(1)
	LDI  R31,HIGH(1)
	CP   R30,R8
	CPC  R31,R9
	BRNE _0x2B
; 0000 009F         if((temp2 - temp1) == 0){
	MOVW R30,R6
	SUB  R30,R4
	SBC  R31,R5
	BRNE _0x2C
; 0000 00A0             motor2 = 0;
	CLR  R12
	CLR  R13
; 0000 00A1         }
; 0000 00A2         else if((temp2 - temp1) <= 5){
	RJMP _0x2D
_0x2C:
	MOVW R26,R6
	SUB  R26,R4
	SBC  R27,R5
	SBIW R26,6
	BRGE _0x2E
; 0000 00A3             motor2 = 50;
	LDI  R30,LOW(50)
	LDI  R31,HIGH(50)
	RJMP _0x35
; 0000 00A4         }
; 0000 00A5         else if((temp2 - temp1) <= 10){
_0x2E:
	MOVW R26,R6
	SUB  R26,R4
	SBC  R27,R5
	SBIW R26,11
	BRGE _0x30
; 0000 00A6             motor2 = 150;
	LDI  R30,LOW(150)
	LDI  R31,HIGH(150)
	RJMP _0x35
; 0000 00A7         }
; 0000 00A8         else if((temp2 - temp1) <= 15){
_0x30:
	MOVW R26,R6
	SUB  R26,R4
	SBC  R27,R5
	SBIW R26,16
	BRGE _0x32
; 0000 00A9             motor2 = 250;
	LDI  R30,LOW(250)
	LDI  R31,HIGH(250)
_0x35:
	MOVW R12,R30
; 0000 00AA         }
; 0000 00AB     }
_0x32:
_0x2D:
; 0000 00AC     else{
	RJMP _0x33
_0x2B:
; 0000 00AD         motor2 = 0;
	CLR  R12
	CLR  R13
; 0000 00AE     }
_0x33:
; 0000 00AF     printf("%d\n",motor2);
	__POINTW1FN _0x0,3
	ST   -Y,R31
	ST   -Y,R30
	MOVW R30,R12
	CALL SUBOPT_0x3
	CALL _printf
	ADIW R28,6
; 0000 00B0 
; 0000 00B1     // print data
; 0000 00B2     sprintf(str, "t1:%d\nt2:%d", temp1, temp2);
	CALL SUBOPT_0x2
	__POINTW1FN _0x0,7
	ST   -Y,R31
	ST   -Y,R30
	MOVW R30,R4
	CALL SUBOPT_0x5
	MOVW R30,R6
	CALL SUBOPT_0x5
	CALL SUBOPT_0x6
; 0000 00B3     lcd_clear();
; 0000 00B4     lcd_puts(str);
; 0000 00B5     delay_ms(500);
	LDI  R26,LOW(500)
	LDI  R27,HIGH(500)
	CALL _delay_ms
; 0000 00B6     sprintf(str,"m1:%d\nm2:%d", motor1, motor2);
	CALL SUBOPT_0x2
	__POINTW1FN _0x0,19
	ST   -Y,R31
	ST   -Y,R30
	MOVW R30,R10
	CALL SUBOPT_0x5
	MOVW R30,R12
	CALL SUBOPT_0x5
	CALL SUBOPT_0x6
; 0000 00B7     lcd_clear();
; 0000 00B8     lcd_puts(str);
; 0000 00B9     delay_ms(500);
	LDI  R26,LOW(500)
	LDI  R27,HIGH(500)
	CALL _delay_ms
; 0000 00BA     }
	RJMP _0xA
; 0000 00BB }
_0x34:
	RJMP _0x34
; .FEND
;
;void init(void)
; 0000 00BE {
_init:
; .FSTART _init
; 0000 00BF // Input/Output Ports initialization
; 0000 00C0 // Port A initialization
; 0000 00C1 // Function: Bit7=In Bit6=In Bit5=In Bit4=In Bit3=In Bit2=In Bit1=In Bit0=In
; 0000 00C2 DDRA=(0<<DDA7) | (0<<DDA6) | (0<<DDA5) | (0<<DDA4) | (0<<DDA3) | (0<<DDA2) | (0<<DDA1) | (0<<DDA0);
	LDI  R30,LOW(0)
	OUT  0x1A,R30
; 0000 00C3 // State: Bit7=T Bit6=T Bit5=T Bit4=T Bit3=T Bit2=T Bit1=T Bit0=T
; 0000 00C4 PORTA=(0<<PORTA7) | (0<<PORTA6) | (0<<PORTA5) | (0<<PORTA4) | (0<<PORTA3) | (0<<PORTA2) | (0<<PORTA1) | (0<<PORTA0);
	OUT  0x1B,R30
; 0000 00C5 
; 0000 00C6 // Port B initialization
; 0000 00C7 // Function: Bit7=In Bit6=In Bit5=In Bit4=In Bit3=In Bit2=Out Bit1=Out Bit0=Out
; 0000 00C8 DDRB=(0<<DDB7) | (0<<DDB6) | (0<<DDB5) | (0<<DDB4) | (0<<DDB3) | (1<<DDB2) | (1<<DDB1) | (1<<DDB0);
	LDI  R30,LOW(7)
	OUT  0x17,R30
; 0000 00C9 // State: Bit7=T Bit6=T Bit5=T Bit4=T Bit3=T Bit2=0 Bit1=0 Bit0=0
; 0000 00CA PORTB=(0<<PORTB7) | (0<<PORTB6) | (0<<PORTB5) | (0<<PORTB4) | (0<<PORTB3) | (0<<PORTB2) | (0<<PORTB1) | (0<<PORTB0);
	LDI  R30,LOW(0)
	OUT  0x18,R30
; 0000 00CB 
; 0000 00CC // Port C initialization
; 0000 00CD // Function: Bit7=In Bit6=In Bit5=In Bit4=In Bit3=In Bit2=In Bit1=In Bit0=In
; 0000 00CE DDRC=(0<<DDC7) | (0<<DDC6) | (0<<DDC5) | (0<<DDC4) | (0<<DDC3) | (0<<DDC2) | (0<<DDC1) | (0<<DDC0);
	OUT  0x14,R30
; 0000 00CF // State: Bit7=T Bit6=T Bit5=T Bit4=T Bit3=T Bit2=T Bit1=T Bit0=T
; 0000 00D0 PORTC=(0<<PORTC7) | (0<<PORTC6) | (0<<PORTC5) | (0<<PORTC4) | (0<<PORTC3) | (0<<PORTC2) | (0<<PORTC1) | (0<<PORTC0);
	OUT  0x15,R30
; 0000 00D1 
; 0000 00D2 // Port D initialization
; 0000 00D3 // Function: Bit7=In Bit6=In Bit5=In Bit4=In Bit3=In Bit2=In Bit1=In Bit0=In
; 0000 00D4 DDRD=(0<<DDD7) | (0<<DDD6) | (0<<DDD5) | (0<<DDD4) | (0<<DDD3) | (0<<DDD2) | (0<<DDD1) | (0<<DDD0);
	OUT  0x11,R30
; 0000 00D5 // State: Bit7=T Bit6=T Bit5=T Bit4=T Bit3=T Bit2=T Bit1=T Bit0=T
; 0000 00D6 PORTD=(0<<PORTD7) | (0<<PORTD6) | (0<<PORTD5) | (0<<PORTD4) | (0<<PORTD3) | (0<<PORTD2) | (0<<PORTD1) | (0<<PORTD0);
	OUT  0x12,R30
; 0000 00D7 
; 0000 00D8 // Timer/Counter 0 initialization
; 0000 00D9 // Clock source: System Clock
; 0000 00DA // Clock value: Timer 0 Stopped
; 0000 00DB // Mode: Normal top=0xFF
; 0000 00DC // OC0 output: Disconnected
; 0000 00DD TCCR0=(0<<WGM00) | (0<<COM01) | (0<<COM00) | (0<<WGM01) | (0<<CS02) | (0<<CS01) | (0<<CS00);
	OUT  0x33,R30
; 0000 00DE TCNT0=0x00;
	OUT  0x32,R30
; 0000 00DF OCR0=0x00;
	OUT  0x3C,R30
; 0000 00E0 
; 0000 00E1 // Timer/Counter 1 initialization
; 0000 00E2 // Clock source: System Clock
; 0000 00E3 // Clock value: Timer1 Stopped
; 0000 00E4 // Mode: Normal top=0xFFFF
; 0000 00E5 // OC1A output: Disconnected
; 0000 00E6 // OC1B output: Disconnected
; 0000 00E7 // Noise Canceler: Off
; 0000 00E8 // Input Capture on Falling Edge
; 0000 00E9 // Timer1 Overflow Interrupt: Off
; 0000 00EA // Input Capture Interrupt: Off
; 0000 00EB // Compare A Match Interrupt: Off
; 0000 00EC // Compare B Match Interrupt: Off
; 0000 00ED TCCR1A=(0<<COM1A1) | (0<<COM1A0) | (0<<COM1B1) | (0<<COM1B0) | (0<<WGM11) | (0<<WGM10);
	OUT  0x2F,R30
; 0000 00EE TCCR1B=(0<<ICNC1) | (0<<ICES1) | (0<<WGM13) | (0<<WGM12) | (0<<CS12) | (0<<CS11) | (0<<CS10);
	OUT  0x2E,R30
; 0000 00EF TCNT1H=0x00;
	OUT  0x2D,R30
; 0000 00F0 TCNT1L=0x00;
	OUT  0x2C,R30
; 0000 00F1 ICR1H=0x00;
	OUT  0x27,R30
; 0000 00F2 ICR1L=0x00;
	OUT  0x26,R30
; 0000 00F3 OCR1AH=0x00;
	OUT  0x2B,R30
; 0000 00F4 OCR1AL=0x00;
	OUT  0x2A,R30
; 0000 00F5 OCR1BH=0x00;
	OUT  0x29,R30
; 0000 00F6 OCR1BL=0x00;
	OUT  0x28,R30
; 0000 00F7 
; 0000 00F8 // Timer/Counter 2 initialization
; 0000 00F9 // Clock source: System Clock
; 0000 00FA // Clock value: Timer2 Stopped
; 0000 00FB // Mode: Normal top=0xFF
; 0000 00FC // OC2 output: Disconnected
; 0000 00FD ASSR=0<<AS2;
	OUT  0x22,R30
; 0000 00FE TCCR2=(0<<PWM2) | (0<<COM21) | (0<<COM20) | (0<<CTC2) | (0<<CS22) | (0<<CS21) | (0<<CS20);
	OUT  0x25,R30
; 0000 00FF TCNT2=0x00;
	OUT  0x24,R30
; 0000 0100 OCR2=0x00;
	OUT  0x23,R30
; 0000 0101 
; 0000 0102 // Timer(s)/Counter(s) Interrupt(s) initialization
; 0000 0103 TIMSK=(0<<OCIE2) | (0<<TOIE2) | (0<<TICIE1) | (0<<OCIE1A) | (0<<OCIE1B) | (0<<TOIE1) | (0<<OCIE0) | (0<<TOIE0);
	OUT  0x39,R30
; 0000 0104 
; 0000 0105 // External Interrupt(s) initialization
; 0000 0106 // INT0: Off
; 0000 0107 // INT1: Off
; 0000 0108 // INT2: Off
; 0000 0109 MCUCR=(0<<ISC11) | (0<<ISC10) | (0<<ISC01) | (0<<ISC00);
	OUT  0x35,R30
; 0000 010A MCUCSR=(0<<ISC2);
	OUT  0x34,R30
; 0000 010B 
; 0000 010C // USART initialization
; 0000 010D // Communication Parameters: 8 Data, 1 Stop, No Parity
; 0000 010E // USART Receiver: On
; 0000 010F // USART Transmitter: On
; 0000 0110 // USART Mode: Asynchronous
; 0000 0111 // USART Baud Rate: 9600
; 0000 0112 UCSRA=(0<<RXC) | (0<<TXC) | (0<<UDRE) | (0<<FE) | (0<<DOR) | (0<<UPE) | (0<<U2X) | (0<<MPCM);
	OUT  0xB,R30
; 0000 0113 UCSRB=(1<<RXCIE) | (0<<TXCIE) | (0<<UDRIE) | (1<<RXEN) | (1<<TXEN) | (0<<UCSZ2) | (0<<RXB8) | (0<<TXB8);
	LDI  R30,LOW(152)
	OUT  0xA,R30
; 0000 0114 UCSRC=(1<<URSEL) | (0<<UMSEL) | (0<<UPM1) | (0<<UPM0) | (0<<USBS) | (1<<UCSZ1) | (1<<UCSZ0) | (0<<UCPOL);
	LDI  R30,LOW(134)
	OUT  0x20,R30
; 0000 0115 UBRRH=0x00;
	LDI  R30,LOW(0)
	OUT  0x20,R30
; 0000 0116 UBRRL=0x33;
	LDI  R30,LOW(51)
	OUT  0x9,R30
; 0000 0117 
; 0000 0118 // Analog Comparator initialization
; 0000 0119 // Analog Comparator: Off
; 0000 011A // The Analog Comparator's positive input is
; 0000 011B // connected to the AIN0 pin
; 0000 011C // The Analog Comparator's negative input is
; 0000 011D // connected to the AIN1 pin
; 0000 011E ACSR=(1<<ACD) | (0<<ACBG) | (0<<ACO) | (0<<ACI) | (0<<ACIE) | (0<<ACIC) | (0<<ACIS1) | (0<<ACIS0);
	LDI  R30,LOW(128)
	OUT  0x8,R30
; 0000 011F SFIOR=(0<<ACME);
	LDI  R30,LOW(0)
	OUT  0x30,R30
; 0000 0120 
; 0000 0121 // ADC initialization
; 0000 0122 // ADC disabled
; 0000 0123 ADCSRA=(0<<ADEN) | (0<<ADSC) | (0<<ADATE) | (0<<ADIF) | (0<<ADIE) | (0<<ADPS2) | (0<<ADPS1) | (0<<ADPS0);
	OUT  0x6,R30
; 0000 0124 
; 0000 0125 // SPI initialization
; 0000 0126 // SPI disabled
; 0000 0127 SPCR=(0<<SPIE) | (0<<SPE) | (0<<DORD) | (0<<MSTR) | (0<<CPOL) | (0<<CPHA) | (0<<SPR1) | (0<<SPR0);
	OUT  0xD,R30
; 0000 0128 
; 0000 0129 // TWI initialization
; 0000 012A // TWI disabled
; 0000 012B TWCR=(0<<TWEA) | (0<<TWSTA) | (0<<TWSTO) | (0<<TWEN) | (0<<TWIE);
	OUT  0x36,R30
; 0000 012C 
; 0000 012D // Alphanumeric LCD initialization
; 0000 012E // Connections are specified in the
; 0000 012F // Project|Configure|C Compiler|Libraries|Alphanumeric LCD menu:
; 0000 0130 // RS - PORTC Bit 0
; 0000 0131 // RD - PORTC Bit 1
; 0000 0132 // EN - PORTC Bit 2
; 0000 0133 // D4 - PORTC Bit 4
; 0000 0134 // D5 - PORTC Bit 5
; 0000 0135 // D6 - PORTC Bit 6
; 0000 0136 // D7 - PORTC Bit 7
; 0000 0137 // Characters/line: 8
; 0000 0138 lcd_init(8);
	LDI  R26,LOW(8)
	RCALL _lcd_init
; 0000 0139 
; 0000 013A // Global enable interrupts
; 0000 013B #asm("sei")
	sei
; 0000 013C }
	RET
; .FEND
	#ifndef __SLEEP_DEFINED__
	#define __SLEEP_DEFINED__
	.EQU __se_bit=0x80
	.EQU __sm_mask=0x70
	.EQU __sm_powerdown=0x20
	.EQU __sm_powersave=0x30
	.EQU __sm_standby=0x60
	.EQU __sm_ext_standby=0x70
	.EQU __sm_adc_noise_red=0x10
	.SET power_ctrl_reg=mcucr
	#endif

	.DSEG

	.CSEG
__lcd_write_nibble_G100:
; .FSTART __lcd_write_nibble_G100
	ST   -Y,R26
	IN   R30,0x15
	ANDI R30,LOW(0xF)
	MOV  R26,R30
	LD   R30,Y
	ANDI R30,LOW(0xF0)
	OR   R30,R26
	OUT  0x15,R30
	__DELAY_USB 13
	SBI  0x15,2
	__DELAY_USB 13
	CBI  0x15,2
	__DELAY_USB 13
	JMP  _0x2080006
; .FEND
__lcd_write_data:
; .FSTART __lcd_write_data
	ST   -Y,R26
	LD   R26,Y
	RCALL __lcd_write_nibble_G100
    ld    r30,y
    swap  r30
    st    y,r30
	LD   R26,Y
	RCALL __lcd_write_nibble_G100
	__DELAY_USB 133
	RJMP _0x2080006
; .FEND
_lcd_gotoxy:
; .FSTART _lcd_gotoxy
	ST   -Y,R26
	LD   R30,Y
	LDI  R31,0
	SUBI R30,LOW(-__base_y_G100)
	SBCI R31,HIGH(-__base_y_G100)
	LD   R30,Z
	LDD  R26,Y+1
	ADD  R26,R30
	RCALL __lcd_write_data
	LDD  R30,Y+1
	STS  __lcd_x,R30
	LD   R30,Y
	STS  __lcd_y,R30
	ADIW R28,2
	RET
; .FEND
_lcd_clear:
; .FSTART _lcd_clear
	LDI  R26,LOW(2)
	CALL SUBOPT_0x7
	LDI  R26,LOW(12)
	RCALL __lcd_write_data
	LDI  R26,LOW(1)
	CALL SUBOPT_0x7
	LDI  R30,LOW(0)
	STS  __lcd_y,R30
	STS  __lcd_x,R30
	RET
; .FEND
_lcd_putchar:
; .FSTART _lcd_putchar
	ST   -Y,R26
	LD   R26,Y
	CPI  R26,LOW(0xA)
	BREQ _0x2000005
	LDS  R30,__lcd_maxx
	LDS  R26,__lcd_x
	CP   R26,R30
	BRLO _0x2000004
_0x2000005:
	LDI  R30,LOW(0)
	ST   -Y,R30
	LDS  R26,__lcd_y
	SUBI R26,-LOW(1)
	STS  __lcd_y,R26
	RCALL _lcd_gotoxy
	LD   R26,Y
	CPI  R26,LOW(0xA)
	BRNE _0x2000007
	RJMP _0x2080006
_0x2000007:
_0x2000004:
	LDS  R30,__lcd_x
	SUBI R30,-LOW(1)
	STS  __lcd_x,R30
	SBI  0x15,0
	LD   R26,Y
	RCALL __lcd_write_data
	CBI  0x15,0
	RJMP _0x2080006
; .FEND
_lcd_puts:
; .FSTART _lcd_puts
	ST   -Y,R27
	ST   -Y,R26
	ST   -Y,R17
_0x2000008:
	LDD  R26,Y+1
	LDD  R27,Y+1+1
	LD   R30,X+
	STD  Y+1,R26
	STD  Y+1+1,R27
	MOV  R17,R30
	CPI  R30,0
	BREQ _0x200000A
	MOV  R26,R17
	RCALL _lcd_putchar
	RJMP _0x2000008
_0x200000A:
	LDD  R17,Y+0
	RJMP _0x2080005
; .FEND
_lcd_init:
; .FSTART _lcd_init
	ST   -Y,R26
	IN   R30,0x14
	ORI  R30,LOW(0xF0)
	OUT  0x14,R30
	SBI  0x14,2
	SBI  0x14,0
	SBI  0x14,1
	CBI  0x15,2
	CBI  0x15,0
	CBI  0x15,1
	LD   R30,Y
	STS  __lcd_maxx,R30
	SUBI R30,-LOW(128)
	__PUTB1MN __base_y_G100,2
	LD   R30,Y
	SUBI R30,-LOW(192)
	__PUTB1MN __base_y_G100,3
	LDI  R26,LOW(20)
	LDI  R27,0
	CALL _delay_ms
	CALL SUBOPT_0x8
	CALL SUBOPT_0x8
	CALL SUBOPT_0x8
	LDI  R26,LOW(32)
	RCALL __lcd_write_nibble_G100
	__DELAY_USW 200
	LDI  R26,LOW(40)
	RCALL __lcd_write_data
	LDI  R26,LOW(4)
	RCALL __lcd_write_data
	LDI  R26,LOW(133)
	RCALL __lcd_write_data
	LDI  R26,LOW(6)
	RCALL __lcd_write_data
	RCALL _lcd_clear
	RJMP _0x2080006
; .FEND
	#ifndef __SLEEP_DEFINED__
	#define __SLEEP_DEFINED__
	.EQU __se_bit=0x80
	.EQU __sm_mask=0x70
	.EQU __sm_powerdown=0x20
	.EQU __sm_powersave=0x30
	.EQU __sm_standby=0x60
	.EQU __sm_ext_standby=0x70
	.EQU __sm_adc_noise_red=0x10
	.SET power_ctrl_reg=mcucr
	#endif

	.CSEG
_putchar:
; .FSTART _putchar
	ST   -Y,R26
putchar0:
     sbis usr,udre
     rjmp putchar0
     ld   r30,y
     out  udr,r30
_0x2080006:
	ADIW R28,1
	RET
; .FEND
_put_usart_G101:
; .FSTART _put_usart_G101
	ST   -Y,R27
	ST   -Y,R26
	LDD  R26,Y+2
	RCALL _putchar
	LD   R26,Y
	LDD  R27,Y+1
	CALL SUBOPT_0x9
_0x2080005:
	ADIW R28,3
	RET
; .FEND
_put_buff_G101:
; .FSTART _put_buff_G101
	ST   -Y,R27
	ST   -Y,R26
	ST   -Y,R17
	ST   -Y,R16
	LDD  R26,Y+2
	LDD  R27,Y+2+1
	ADIW R26,2
	CALL __GETW1P
	SBIW R30,0
	BREQ _0x2020010
	LDD  R26,Y+2
	LDD  R27,Y+2+1
	ADIW R26,4
	CALL __GETW1P
	MOVW R16,R30
	SBIW R30,0
	BREQ _0x2020012
	__CPWRN 16,17,2
	BRLO _0x2020013
	MOVW R30,R16
	SBIW R30,1
	MOVW R16,R30
	__PUTW1SNS 2,4
_0x2020012:
	LDD  R26,Y+2
	LDD  R27,Y+2+1
	ADIW R26,2
	CALL SUBOPT_0x9
	SBIW R30,1
	LDD  R26,Y+4
	STD  Z+0,R26
_0x2020013:
	LDD  R26,Y+2
	LDD  R27,Y+2+1
	CALL __GETW1P
	TST  R31
	BRMI _0x2020014
	CALL SUBOPT_0x9
_0x2020014:
	RJMP _0x2020015
_0x2020010:
	LDD  R26,Y+2
	LDD  R27,Y+2+1
	LDI  R30,LOW(65535)
	LDI  R31,HIGH(65535)
	ST   X+,R30
	ST   X,R31
_0x2020015:
	LDD  R17,Y+1
	LDD  R16,Y+0
	RJMP _0x2080003
; .FEND
__print_G101:
; .FSTART __print_G101
	ST   -Y,R27
	ST   -Y,R26
	SBIW R28,6
	CALL __SAVELOCR6
	LDI  R17,0
	LDD  R26,Y+12
	LDD  R27,Y+12+1
	LDI  R30,LOW(0)
	LDI  R31,HIGH(0)
	ST   X+,R30
	ST   X,R31
_0x2020016:
	LDD  R30,Y+18
	LDD  R31,Y+18+1
	ADIW R30,1
	STD  Y+18,R30
	STD  Y+18+1,R31
	SBIW R30,1
	LPM  R30,Z
	MOV  R18,R30
	CPI  R30,0
	BRNE PC+2
	RJMP _0x2020018
	MOV  R30,R17
	CPI  R30,0
	BRNE _0x202001C
	CPI  R18,37
	BRNE _0x202001D
	LDI  R17,LOW(1)
	RJMP _0x202001E
_0x202001D:
	CALL SUBOPT_0xA
_0x202001E:
	RJMP _0x202001B
_0x202001C:
	CPI  R30,LOW(0x1)
	BRNE _0x202001F
	CPI  R18,37
	BRNE _0x2020020
	CALL SUBOPT_0xA
	RJMP _0x20200CC
_0x2020020:
	LDI  R17,LOW(2)
	LDI  R20,LOW(0)
	LDI  R16,LOW(0)
	CPI  R18,45
	BRNE _0x2020021
	LDI  R16,LOW(1)
	RJMP _0x202001B
_0x2020021:
	CPI  R18,43
	BRNE _0x2020022
	LDI  R20,LOW(43)
	RJMP _0x202001B
_0x2020022:
	CPI  R18,32
	BRNE _0x2020023
	LDI  R20,LOW(32)
	RJMP _0x202001B
_0x2020023:
	RJMP _0x2020024
_0x202001F:
	CPI  R30,LOW(0x2)
	BRNE _0x2020025
_0x2020024:
	LDI  R21,LOW(0)
	LDI  R17,LOW(3)
	CPI  R18,48
	BRNE _0x2020026
	ORI  R16,LOW(128)
	RJMP _0x202001B
_0x2020026:
	RJMP _0x2020027
_0x2020025:
	CPI  R30,LOW(0x3)
	BREQ PC+2
	RJMP _0x202001B
_0x2020027:
	CPI  R18,48
	BRLO _0x202002A
	CPI  R18,58
	BRLO _0x202002B
_0x202002A:
	RJMP _0x2020029
_0x202002B:
	LDI  R26,LOW(10)
	MUL  R21,R26
	MOV  R21,R0
	MOV  R30,R18
	SUBI R30,LOW(48)
	ADD  R21,R30
	RJMP _0x202001B
_0x2020029:
	MOV  R30,R18
	CPI  R30,LOW(0x63)
	BRNE _0x202002F
	CALL SUBOPT_0xB
	LDD  R30,Y+16
	LDD  R31,Y+16+1
	LDD  R26,Z+4
	ST   -Y,R26
	CALL SUBOPT_0xC
	RJMP _0x2020030
_0x202002F:
	CPI  R30,LOW(0x73)
	BRNE _0x2020032
	CALL SUBOPT_0xB
	CALL SUBOPT_0xD
	CALL _strlen
	MOV  R17,R30
	RJMP _0x2020033
_0x2020032:
	CPI  R30,LOW(0x70)
	BRNE _0x2020035
	CALL SUBOPT_0xB
	CALL SUBOPT_0xD
	CALL _strlenf
	MOV  R17,R30
	ORI  R16,LOW(8)
_0x2020033:
	ORI  R16,LOW(2)
	ANDI R16,LOW(127)
	LDI  R19,LOW(0)
	RJMP _0x2020036
_0x2020035:
	CPI  R30,LOW(0x64)
	BREQ _0x2020039
	CPI  R30,LOW(0x69)
	BRNE _0x202003A
_0x2020039:
	ORI  R16,LOW(4)
	RJMP _0x202003B
_0x202003A:
	CPI  R30,LOW(0x75)
	BRNE _0x202003C
_0x202003B:
	LDI  R30,LOW(_tbl10_G101*2)
	LDI  R31,HIGH(_tbl10_G101*2)
	STD  Y+6,R30
	STD  Y+6+1,R31
	LDI  R17,LOW(5)
	RJMP _0x202003D
_0x202003C:
	CPI  R30,LOW(0x58)
	BRNE _0x202003F
	ORI  R16,LOW(8)
	RJMP _0x2020040
_0x202003F:
	CPI  R30,LOW(0x78)
	BREQ PC+2
	RJMP _0x2020071
_0x2020040:
	LDI  R30,LOW(_tbl16_G101*2)
	LDI  R31,HIGH(_tbl16_G101*2)
	STD  Y+6,R30
	STD  Y+6+1,R31
	LDI  R17,LOW(4)
_0x202003D:
	SBRS R16,2
	RJMP _0x2020042
	CALL SUBOPT_0xB
	CALL SUBOPT_0xE
	LDD  R26,Y+11
	TST  R26
	BRPL _0x2020043
	LDD  R30,Y+10
	LDD  R31,Y+10+1
	CALL __ANEGW1
	STD  Y+10,R30
	STD  Y+10+1,R31
	LDI  R20,LOW(45)
_0x2020043:
	CPI  R20,0
	BREQ _0x2020044
	SUBI R17,-LOW(1)
	RJMP _0x2020045
_0x2020044:
	ANDI R16,LOW(251)
_0x2020045:
	RJMP _0x2020046
_0x2020042:
	CALL SUBOPT_0xB
	CALL SUBOPT_0xE
_0x2020046:
_0x2020036:
	SBRC R16,0
	RJMP _0x2020047
_0x2020048:
	CP   R17,R21
	BRSH _0x202004A
	SBRS R16,7
	RJMP _0x202004B
	SBRS R16,2
	RJMP _0x202004C
	ANDI R16,LOW(251)
	MOV  R18,R20
	SUBI R17,LOW(1)
	RJMP _0x202004D
_0x202004C:
	LDI  R18,LOW(48)
_0x202004D:
	RJMP _0x202004E
_0x202004B:
	LDI  R18,LOW(32)
_0x202004E:
	CALL SUBOPT_0xA
	SUBI R21,LOW(1)
	RJMP _0x2020048
_0x202004A:
_0x2020047:
	MOV  R19,R17
	SBRS R16,1
	RJMP _0x202004F
_0x2020050:
	CPI  R19,0
	BREQ _0x2020052
	SBRS R16,3
	RJMP _0x2020053
	LDD  R30,Y+6
	LDD  R31,Y+6+1
	LPM  R18,Z+
	STD  Y+6,R30
	STD  Y+6+1,R31
	RJMP _0x2020054
_0x2020053:
	LDD  R26,Y+6
	LDD  R27,Y+6+1
	LD   R18,X+
	STD  Y+6,R26
	STD  Y+6+1,R27
_0x2020054:
	CALL SUBOPT_0xA
	CPI  R21,0
	BREQ _0x2020055
	SUBI R21,LOW(1)
_0x2020055:
	SUBI R19,LOW(1)
	RJMP _0x2020050
_0x2020052:
	RJMP _0x2020056
_0x202004F:
_0x2020058:
	LDI  R18,LOW(48)
	LDD  R30,Y+6
	LDD  R31,Y+6+1
	CALL __GETW1PF
	STD  Y+8,R30
	STD  Y+8+1,R31
	LDD  R30,Y+6
	LDD  R31,Y+6+1
	ADIW R30,2
	STD  Y+6,R30
	STD  Y+6+1,R31
_0x202005A:
	LDD  R30,Y+8
	LDD  R31,Y+8+1
	LDD  R26,Y+10
	LDD  R27,Y+10+1
	CP   R26,R30
	CPC  R27,R31
	BRLO _0x202005C
	SUBI R18,-LOW(1)
	LDD  R26,Y+8
	LDD  R27,Y+8+1
	LDD  R30,Y+10
	LDD  R31,Y+10+1
	SUB  R30,R26
	SBC  R31,R27
	STD  Y+10,R30
	STD  Y+10+1,R31
	RJMP _0x202005A
_0x202005C:
	CPI  R18,58
	BRLO _0x202005D
	SBRS R16,3
	RJMP _0x202005E
	SUBI R18,-LOW(7)
	RJMP _0x202005F
_0x202005E:
	SUBI R18,-LOW(39)
_0x202005F:
_0x202005D:
	SBRC R16,4
	RJMP _0x2020061
	CPI  R18,49
	BRSH _0x2020063
	LDD  R26,Y+8
	LDD  R27,Y+8+1
	SBIW R26,1
	BRNE _0x2020062
_0x2020063:
	RJMP _0x20200CD
_0x2020062:
	CP   R21,R19
	BRLO _0x2020067
	SBRS R16,0
	RJMP _0x2020068
_0x2020067:
	RJMP _0x2020066
_0x2020068:
	LDI  R18,LOW(32)
	SBRS R16,7
	RJMP _0x2020069
	LDI  R18,LOW(48)
_0x20200CD:
	ORI  R16,LOW(16)
	SBRS R16,2
	RJMP _0x202006A
	ANDI R16,LOW(251)
	ST   -Y,R20
	CALL SUBOPT_0xC
	CPI  R21,0
	BREQ _0x202006B
	SUBI R21,LOW(1)
_0x202006B:
_0x202006A:
_0x2020069:
_0x2020061:
	CALL SUBOPT_0xA
	CPI  R21,0
	BREQ _0x202006C
	SUBI R21,LOW(1)
_0x202006C:
_0x2020066:
	SUBI R19,LOW(1)
	LDD  R26,Y+8
	LDD  R27,Y+8+1
	SBIW R26,2
	BRLO _0x2020059
	RJMP _0x2020058
_0x2020059:
_0x2020056:
	SBRS R16,0
	RJMP _0x202006D
_0x202006E:
	CPI  R21,0
	BREQ _0x2020070
	SUBI R21,LOW(1)
	LDI  R30,LOW(32)
	ST   -Y,R30
	CALL SUBOPT_0xC
	RJMP _0x202006E
_0x2020070:
_0x202006D:
_0x2020071:
_0x2020030:
_0x20200CC:
	LDI  R17,LOW(0)
_0x202001B:
	RJMP _0x2020016
_0x2020018:
	LDD  R26,Y+12
	LDD  R27,Y+12+1
	CALL __GETW1P
	CALL __LOADLOCR6
	ADIW R28,20
	RET
; .FEND
_sprintf:
; .FSTART _sprintf
	PUSH R15
	MOV  R15,R24
	SBIW R28,6
	CALL __SAVELOCR4
	CALL SUBOPT_0xF
	SBIW R30,0
	BRNE _0x2020072
	LDI  R30,LOW(65535)
	LDI  R31,HIGH(65535)
	RJMP _0x2080004
_0x2020072:
	MOVW R26,R28
	ADIW R26,6
	CALL __ADDW2R15
	MOVW R16,R26
	CALL SUBOPT_0xF
	STD  Y+6,R30
	STD  Y+6+1,R31
	LDI  R30,LOW(0)
	STD  Y+8,R30
	STD  Y+8+1,R30
	MOVW R26,R28
	ADIW R26,10
	CALL SUBOPT_0x10
	LDI  R30,LOW(_put_buff_G101)
	LDI  R31,HIGH(_put_buff_G101)
	ST   -Y,R31
	ST   -Y,R30
	MOVW R26,R28
	ADIW R26,10
	RCALL __print_G101
	MOVW R18,R30
	LDD  R26,Y+6
	LDD  R27,Y+6+1
	LDI  R30,LOW(0)
	ST   X,R30
	MOVW R30,R18
_0x2080004:
	CALL __LOADLOCR4
	ADIW R28,10
	POP  R15
	RET
; .FEND
_printf:
; .FSTART _printf
	PUSH R15
	MOV  R15,R24
	SBIW R28,6
	ST   -Y,R17
	ST   -Y,R16
	MOVW R26,R28
	ADIW R26,4
	CALL __ADDW2R15
	MOVW R16,R26
	LDI  R30,LOW(0)
	STD  Y+4,R30
	STD  Y+4+1,R30
	STD  Y+6,R30
	STD  Y+6+1,R30
	MOVW R26,R28
	ADIW R26,8
	CALL SUBOPT_0x10
	LDI  R30,LOW(_put_usart_G101)
	LDI  R31,HIGH(_put_usart_G101)
	ST   -Y,R31
	ST   -Y,R30
	MOVW R26,R28
	ADIW R26,8
	RCALL __print_G101
	LDD  R17,Y+1
	LDD  R16,Y+0
	ADIW R28,8
	POP  R15
	RET
; .FEND
_get_usart_G101:
; .FSTART _get_usart_G101
	ST   -Y,R27
	ST   -Y,R26
	ST   -Y,R17
	LDD  R26,Y+1
	LDD  R27,Y+1+1
	LDI  R30,LOW(0)
	ST   X,R30
	LDD  R26,Y+3
	LDD  R27,Y+3+1
	LD   R30,X
	MOV  R17,R30
	CPI  R30,0
	BREQ _0x2020078
	LDI  R30,LOW(0)
	ST   X,R30
	RJMP _0x2020079
_0x2020078:
	CALL _getchar
	MOV  R17,R30
_0x2020079:
	MOV  R30,R17
	LDD  R17,Y+0
_0x2080003:
	ADIW R28,5
	RET
; .FEND
__scanf_G101:
; .FSTART __scanf_G101
	PUSH R15
	ST   -Y,R27
	ST   -Y,R26
	SBIW R28,4
	CALL __SAVELOCR6
	LDI  R30,LOW(0)
	LDI  R31,HIGH(0)
	STD  Y+8,R30
	STD  Y+8+1,R31
	MOV  R20,R30
_0x202007F:
	LDD  R30,Y+16
	LDD  R31,Y+16+1
	ADIW R30,1
	STD  Y+16,R30
	STD  Y+16+1,R31
	SBIW R30,1
	LPM  R30,Z
	MOV  R19,R30
	CPI  R30,0
	BRNE PC+2
	RJMP _0x2020081
	CALL SUBOPT_0x11
	BREQ _0x2020082
_0x2020083:
	IN   R30,SPL
	IN   R31,SPH
	ST   -Y,R31
	ST   -Y,R30
	PUSH R20
	CALL SUBOPT_0x12
	POP  R20
	MOV  R19,R30
	CPI  R30,0
	BREQ _0x2020086
	CALL SUBOPT_0x11
	BRNE _0x2020087
_0x2020086:
	RJMP _0x2020085
_0x2020087:
	CALL SUBOPT_0x13
	BRGE _0x2020088
	LDI  R30,LOW(65535)
	LDI  R31,HIGH(65535)
	RJMP _0x2080001
_0x2020088:
	RJMP _0x2020083
_0x2020085:
	MOV  R20,R19
	RJMP _0x2020089
_0x2020082:
	CPI  R19,37
	BREQ PC+2
	RJMP _0x202008A
	LDI  R21,LOW(0)
_0x202008B:
	LDD  R30,Y+16
	LDD  R31,Y+16+1
	LPM  R19,Z+
	STD  Y+16,R30
	STD  Y+16+1,R31
	CPI  R19,48
	BRLO _0x202008F
	CPI  R19,58
	BRLO _0x202008E
_0x202008F:
	RJMP _0x202008D
_0x202008E:
	LDI  R26,LOW(10)
	MUL  R21,R26
	MOV  R21,R0
	MOV  R30,R19
	SUBI R30,LOW(48)
	ADD  R21,R30
	RJMP _0x202008B
_0x202008D:
	CPI  R19,0
	BRNE _0x2020091
	RJMP _0x2020081
_0x2020091:
_0x2020092:
	IN   R30,SPL
	IN   R31,SPH
	ST   -Y,R31
	ST   -Y,R30
	PUSH R20
	CALL SUBOPT_0x12
	POP  R20
	MOV  R18,R30
	MOV  R26,R30
	CALL _isspace
	CPI  R30,0
	BREQ _0x2020094
	CALL SUBOPT_0x13
	BRGE _0x2020095
	LDI  R30,LOW(65535)
	LDI  R31,HIGH(65535)
	RJMP _0x2080001
_0x2020095:
	RJMP _0x2020092
_0x2020094:
	CPI  R18,0
	BRNE _0x2020096
	RJMP _0x2020097
_0x2020096:
	MOV  R20,R18
	CPI  R21,0
	BRNE _0x2020098
	LDI  R21,LOW(255)
_0x2020098:
	MOV  R30,R19
	CPI  R30,LOW(0x63)
	BRNE _0x202009C
	CALL SUBOPT_0x14
	IN   R30,SPL
	IN   R31,SPH
	ST   -Y,R31
	ST   -Y,R30
	PUSH R20
	CALL SUBOPT_0x12
	POP  R20
	MOVW R26,R16
	ST   X,R30
	CALL SUBOPT_0x13
	BRGE _0x202009D
	LDI  R30,LOW(65535)
	LDI  R31,HIGH(65535)
	RJMP _0x2080001
_0x202009D:
	RJMP _0x202009B
_0x202009C:
	CPI  R30,LOW(0x73)
	BRNE _0x20200A6
	CALL SUBOPT_0x14
_0x202009F:
	MOV  R30,R21
	SUBI R21,1
	CPI  R30,0
	BREQ _0x20200A1
	IN   R30,SPL
	IN   R31,SPH
	ST   -Y,R31
	ST   -Y,R30
	PUSH R20
	CALL SUBOPT_0x12
	POP  R20
	MOV  R19,R30
	CPI  R30,0
	BREQ _0x20200A3
	CALL SUBOPT_0x11
	BREQ _0x20200A2
_0x20200A3:
	CALL SUBOPT_0x13
	BRGE _0x20200A5
	LDI  R30,LOW(65535)
	LDI  R31,HIGH(65535)
	RJMP _0x2080001
_0x20200A5:
	RJMP _0x20200A1
_0x20200A2:
	PUSH R17
	PUSH R16
	__ADDWRN 16,17,1
	MOV  R30,R19
	POP  R26
	POP  R27
	ST   X,R30
	RJMP _0x202009F
_0x20200A1:
	MOVW R26,R16
	LDI  R30,LOW(0)
	ST   X,R30
	RJMP _0x202009B
_0x20200A6:
	SET
	BLD  R15,1
	CLT
	BLD  R15,2
	MOV  R30,R19
	CPI  R30,LOW(0x64)
	BREQ _0x20200AB
	CPI  R30,LOW(0x69)
	BRNE _0x20200AC
_0x20200AB:
	CLT
	BLD  R15,1
	RJMP _0x20200AD
_0x20200AC:
	CPI  R30,LOW(0x75)
	BRNE _0x20200AE
_0x20200AD:
	LDI  R18,LOW(10)
	RJMP _0x20200A9
_0x20200AE:
	CPI  R30,LOW(0x78)
	BRNE _0x20200AF
	LDI  R18,LOW(16)
	RJMP _0x20200A9
_0x20200AF:
	CPI  R30,LOW(0x25)
	BRNE _0x20200B2
	RJMP _0x20200B1
_0x20200B2:
	RJMP _0x2080002
_0x20200A9:
	LDI  R30,LOW(0)
	STD  Y+6,R30
	STD  Y+6+1,R30
	SET
	BLD  R15,0
_0x20200B3:
	MOV  R30,R21
	SUBI R21,1
	CPI  R30,0
	BRNE PC+2
	RJMP _0x20200B5
	IN   R30,SPL
	IN   R31,SPH
	ST   -Y,R31
	ST   -Y,R30
	PUSH R20
	CALL SUBOPT_0x12
	POP  R20
	MOV  R19,R30
	CPI  R30,LOW(0x21)
	BRSH _0x20200B6
	CALL SUBOPT_0x13
	BRGE _0x20200B7
	LDI  R30,LOW(65535)
	LDI  R31,HIGH(65535)
	RJMP _0x2080001
_0x20200B7:
	RJMP _0x20200B8
_0x20200B6:
	SBRC R15,1
	RJMP _0x20200B9
	SET
	BLD  R15,1
	CPI  R19,45
	BRNE _0x20200BA
	BLD  R15,2
	RJMP _0x20200B3
_0x20200BA:
	CPI  R19,43
	BREQ _0x20200B3
_0x20200B9:
	CPI  R18,16
	BRNE _0x20200BC
	MOV  R26,R19
	CALL _isxdigit
	CPI  R30,0
	BREQ _0x20200B8
	RJMP _0x20200BE
_0x20200BC:
	MOV  R26,R19
	CALL _isdigit
	CPI  R30,0
	BRNE _0x20200BF
_0x20200B8:
	SBRC R15,0
	RJMP _0x20200C1
	MOV  R20,R19
	RJMP _0x20200B5
_0x20200BF:
_0x20200BE:
	CPI  R19,97
	BRLO _0x20200C2
	SUBI R19,LOW(87)
	RJMP _0x20200C3
_0x20200C2:
	CPI  R19,65
	BRLO _0x20200C4
	SUBI R19,LOW(55)
	RJMP _0x20200C5
_0x20200C4:
	SUBI R19,LOW(48)
_0x20200C5:
_0x20200C3:
	MOV  R30,R18
	LDD  R26,Y+6
	LDD  R27,Y+6+1
	LDI  R31,0
	CALL __MULW12U
	MOVW R26,R30
	MOV  R30,R19
	LDI  R31,0
	ADD  R30,R26
	ADC  R31,R27
	STD  Y+6,R30
	STD  Y+6+1,R31
	CLT
	BLD  R15,0
	RJMP _0x20200B3
_0x20200B5:
	CALL SUBOPT_0x14
	SBRS R15,2
	RJMP _0x20200C6
	LDD  R30,Y+6
	LDD  R31,Y+6+1
	CALL __ANEGW1
	STD  Y+6,R30
	STD  Y+6+1,R31
_0x20200C6:
	LDD  R30,Y+6
	LDD  R31,Y+6+1
	MOVW R26,R16
	ST   X+,R30
	ST   X,R31
_0x202009B:
	LDD  R30,Y+8
	LDD  R31,Y+8+1
	ADIW R30,1
	STD  Y+8,R30
	STD  Y+8+1,R31
	RJMP _0x20200C7
_0x202008A:
_0x20200B1:
	IN   R30,SPL
	IN   R31,SPH
	ST   -Y,R31
	ST   -Y,R30
	PUSH R20
	CALL SUBOPT_0x12
	POP  R20
	CP   R30,R19
	BREQ _0x20200C8
	CALL SUBOPT_0x13
	BRGE _0x20200C9
	LDI  R30,LOW(65535)
	LDI  R31,HIGH(65535)
	RJMP _0x2080001
_0x20200C9:
_0x2020097:
	LDD  R30,Y+8
	LDD  R31,Y+8+1
	SBIW R30,0
	BRNE _0x20200CA
	LDI  R30,LOW(65535)
	LDI  R31,HIGH(65535)
	RJMP _0x2080001
_0x20200CA:
	RJMP _0x2020081
_0x20200C8:
_0x20200C7:
_0x2020089:
	RJMP _0x202007F
_0x2020081:
_0x20200C1:
_0x2080002:
	LDD  R30,Y+8
	LDD  R31,Y+8+1
_0x2080001:
	CALL __LOADLOCR6
	ADIW R28,18
	POP  R15
	RET
; .FEND
_scanf:
; .FSTART _scanf
	PUSH R15
	MOV  R15,R24
	SBIW R28,3
	ST   -Y,R17
	ST   -Y,R16
	MOVW R26,R28
	ADIW R26,1
	CALL __ADDW2R15
	MOVW R16,R26
	LDI  R30,LOW(0)
	STD  Y+3,R30
	STD  Y+3+1,R30
	MOVW R26,R28
	ADIW R26,5
	CALL SUBOPT_0x10
	LDI  R30,LOW(_get_usart_G101)
	LDI  R31,HIGH(_get_usart_G101)
	ST   -Y,R31
	ST   -Y,R30
	MOVW R26,R28
	ADIW R26,8
	RCALL __scanf_G101
	LDD  R17,Y+1
	LDD  R16,Y+0
	ADIW R28,5
	POP  R15
	RET
; .FEND

	.CSEG
_isdigit:
; .FSTART _isdigit
	ST   -Y,R26
    ldi  r30,1
    ld   r31,y+
    cpi  r31,'0'
    brlo isdigit0
    cpi  r31,'9'+1
    brlo isdigit1
isdigit0:
    clr  r30
isdigit1:
    ret
; .FEND
_isspace:
; .FSTART _isspace
	ST   -Y,R26
    ldi  r30,1
    ld   r31,y+
    cpi  r31,' '
    breq isspace1
    cpi  r31,9
    brlo isspace0
    cpi  r31,13+1
    brlo isspace1
isspace0:
    clr  r30
isspace1:
    ret
; .FEND
_isxdigit:
; .FSTART _isxdigit
	ST   -Y,R26
    ldi  r30,1
    ld   r31,y+
    subi r31,0x30
    brcs isxdigit0
    cpi  r31,10
    brcs isxdigit1
    andi r31,0x5f
    subi r31,7
    cpi  r31,10
    brcs isxdigit0
    cpi  r31,16
    brcs isxdigit1
isxdigit0:
    clr  r30
isxdigit1:
    ret
; .FEND

	.CSEG
_strlen:
; .FSTART _strlen
	ST   -Y,R27
	ST   -Y,R26
    ld   r26,y+
    ld   r27,y+
    clr  r30
    clr  r31
strlen0:
    ld   r22,x+
    tst  r22
    breq strlen1
    adiw r30,1
    rjmp strlen0
strlen1:
    ret
; .FEND
_strlenf:
; .FSTART _strlenf
	ST   -Y,R27
	ST   -Y,R26
    clr  r26
    clr  r27
    ld   r30,y+
    ld   r31,y+
strlenf0:
	lpm  r0,z+
    tst  r0
    breq strlenf1
    adiw r26,1
    rjmp strlenf0
strlenf1:
    movw r30,r26
    ret
; .FEND

	.DSEG
_str:
	.BYTE 0xA
_rx_buffer:
	.BYTE 0x50
_rx_wr_index:
	.BYTE 0x1
_rx_rd_index:
	.BYTE 0x1
_rx_counter:
	.BYTE 0x1
__base_y_G100:
	.BYTE 0x4
__lcd_x:
	.BYTE 0x1
__lcd_y:
	.BYTE 0x1
__lcd_maxx:
	.BYTE 0x1

	.CSEG
;OPTIMIZER ADDED SUBROUTINE, CALLED 4 TIMES, CODE SIZE REDUCTION:3 WORDS
SUBOPT_0x0:
	__POINTW1FN _0x0,0
	ST   -Y,R31
	ST   -Y,R30
	RET

;OPTIMIZER ADDED SUBROUTINE, CALLED 3 TIMES, CODE SIZE REDUCTION:5 WORDS
SUBOPT_0x1:
	CALL __PUTPARD1
	LDI  R24,4
	CALL _scanf
	ADIW R28,6
	RET

;OPTIMIZER ADDED SUBROUTINE, CALLED 3 TIMES, CODE SIZE REDUCTION:1 WORDS
SUBOPT_0x2:
	LDI  R30,LOW(_str)
	LDI  R31,HIGH(_str)
	ST   -Y,R31
	ST   -Y,R30
	RET

;OPTIMIZER ADDED SUBROUTINE, CALLED 3 TIMES, CODE SIZE REDUCTION:3 WORDS
SUBOPT_0x3:
	CALL __CWD1
	CALL __PUTPARD1
	LDI  R24,4
	RET

;OPTIMIZER ADDED SUBROUTINE, CALLED 3 TIMES, CODE SIZE REDUCTION:1 WORDS
SUBOPT_0x4:
	LDI  R26,LOW(_str)
	LDI  R27,HIGH(_str)
	JMP  _lcd_puts

;OPTIMIZER ADDED SUBROUTINE, CALLED 4 TIMES, CODE SIZE REDUCTION:3 WORDS
SUBOPT_0x5:
	CALL __CWD1
	CALL __PUTPARD1
	RET

;OPTIMIZER ADDED SUBROUTINE, CALLED 2 TIMES, CODE SIZE REDUCTION:3 WORDS
SUBOPT_0x6:
	LDI  R24,8
	CALL _sprintf
	ADIW R28,12
	CALL _lcd_clear
	RJMP SUBOPT_0x4

;OPTIMIZER ADDED SUBROUTINE, CALLED 2 TIMES, CODE SIZE REDUCTION:1 WORDS
SUBOPT_0x7:
	CALL __lcd_write_data
	LDI  R26,LOW(3)
	LDI  R27,0
	JMP  _delay_ms

;OPTIMIZER ADDED SUBROUTINE, CALLED 3 TIMES, CODE SIZE REDUCTION:7 WORDS
SUBOPT_0x8:
	LDI  R26,LOW(48)
	CALL __lcd_write_nibble_G100
	__DELAY_USW 200
	RET

;OPTIMIZER ADDED SUBROUTINE, CALLED 3 TIMES, CODE SIZE REDUCTION:3 WORDS
SUBOPT_0x9:
	LD   R30,X+
	LD   R31,X+
	ADIW R30,1
	ST   -X,R31
	ST   -X,R30
	RET

;OPTIMIZER ADDED SUBROUTINE, CALLED 5 TIMES, CODE SIZE REDUCTION:13 WORDS
SUBOPT_0xA:
	ST   -Y,R18
	LDD  R26,Y+13
	LDD  R27,Y+13+1
	LDD  R30,Y+15
	LDD  R31,Y+15+1
	ICALL
	RET

;OPTIMIZER ADDED SUBROUTINE, CALLED 5 TIMES, CODE SIZE REDUCTION:9 WORDS
SUBOPT_0xB:
	LDD  R30,Y+16
	LDD  R31,Y+16+1
	SBIW R30,4
	STD  Y+16,R30
	STD  Y+16+1,R31
	RET

;OPTIMIZER ADDED SUBROUTINE, CALLED 3 TIMES, CODE SIZE REDUCTION:3 WORDS
SUBOPT_0xC:
	LDD  R26,Y+13
	LDD  R27,Y+13+1
	LDD  R30,Y+15
	LDD  R31,Y+15+1
	ICALL
	RET

;OPTIMIZER ADDED SUBROUTINE, CALLED 2 TIMES, CODE SIZE REDUCTION:4 WORDS
SUBOPT_0xD:
	LDD  R26,Y+16
	LDD  R27,Y+16+1
	ADIW R26,4
	CALL __GETW1P
	STD  Y+6,R30
	STD  Y+6+1,R31
	LDD  R26,Y+6
	LDD  R27,Y+6+1
	RET

;OPTIMIZER ADDED SUBROUTINE, CALLED 2 TIMES, CODE SIZE REDUCTION:2 WORDS
SUBOPT_0xE:
	LDD  R26,Y+16
	LDD  R27,Y+16+1
	ADIW R26,4
	CALL __GETW1P
	STD  Y+10,R30
	STD  Y+10+1,R31
	RET

;OPTIMIZER ADDED SUBROUTINE, CALLED 2 TIMES, CODE SIZE REDUCTION:1 WORDS
SUBOPT_0xF:
	MOVW R26,R28
	ADIW R26,12
	CALL __ADDW2R15
	CALL __GETW1P
	RET

;OPTIMIZER ADDED SUBROUTINE, CALLED 3 TIMES, CODE SIZE REDUCTION:9 WORDS
SUBOPT_0x10:
	CALL __ADDW2R15
	CALL __GETW1P
	ST   -Y,R31
	ST   -Y,R30
	ST   -Y,R17
	ST   -Y,R16
	RET

;OPTIMIZER ADDED SUBROUTINE, CALLED 3 TIMES, CODE SIZE REDUCTION:1 WORDS
SUBOPT_0x11:
	MOV  R26,R19
	CALL _isspace
	CPI  R30,0
	RET

;OPTIMIZER ADDED SUBROUTINE, CALLED 6 TIMES, CODE SIZE REDUCTION:12 WORDS
SUBOPT_0x12:
	LDD  R26,Y+12
	LDD  R27,Y+12+1
	LDD  R30,Y+14
	LDD  R31,Y+14+1
	ICALL
	RET

;OPTIMIZER ADDED SUBROUTINE, CALLED 6 TIMES, CODE SIZE REDUCTION:7 WORDS
SUBOPT_0x13:
	LDD  R26,Y+10
	LDD  R27,Y+10+1
	LD   R26,X
	CPI  R26,0
	RET

;OPTIMIZER ADDED SUBROUTINE, CALLED 3 TIMES, CODE SIZE REDUCTION:13 WORDS
SUBOPT_0x14:
	LDD  R30,Y+14
	LDD  R31,Y+14+1
	SBIW R30,4
	STD  Y+14,R30
	STD  Y+14+1,R31
	LDD  R26,Y+14
	LDD  R27,Y+14+1
	ADIW R26,4
	LD   R16,X+
	LD   R17,X
	RET


	.CSEG
_delay_ms:
	adiw r26,0
	breq __delay_ms1
__delay_ms0:
	__DELAY_USW 0x7D0
	wdr
	sbiw r26,1
	brne __delay_ms0
__delay_ms1:
	ret

__ADDW2R15:
	CLR  R0
	ADD  R26,R15
	ADC  R27,R0
	RET

__ANEGW1:
	NEG  R31
	NEG  R30
	SBCI R31,0
	RET

__CWD1:
	MOV  R22,R31
	ADD  R22,R22
	SBC  R22,R22
	MOV  R23,R22
	RET

__MULW12U:
	MUL  R31,R26
	MOV  R31,R0
	MUL  R30,R27
	ADD  R31,R0
	MUL  R30,R26
	MOV  R30,R0
	ADD  R31,R1
	RET

__GETW1P:
	LD   R30,X+
	LD   R31,X
	SBIW R26,1
	RET

__GETW1PF:
	LPM  R0,Z+
	LPM  R31,Z
	MOV  R30,R0
	RET

__PUTPARD1:
	ST   -Y,R23
	ST   -Y,R22
	ST   -Y,R31
	ST   -Y,R30
	RET

__SAVELOCR6:
	ST   -Y,R21
__SAVELOCR5:
	ST   -Y,R20
__SAVELOCR4:
	ST   -Y,R19
__SAVELOCR3:
	ST   -Y,R18
__SAVELOCR2:
	ST   -Y,R17
	ST   -Y,R16
	RET

__LOADLOCR6:
	LDD  R21,Y+5
__LOADLOCR5:
	LDD  R20,Y+4
__LOADLOCR4:
	LDD  R19,Y+3
__LOADLOCR3:
	LDD  R18,Y+2
__LOADLOCR2:
	LDD  R17,Y+1
	LD   R16,Y
	RET

;END OF CODE MARKER
__END_OF_CODE:
